(dp1
S'output'
p2
S"<type 'exceptions.TypeError'> unbound method xml() must be called with I instance as first argument (got nothing instead)"
p3
sS'layer'
p4
S'/home/damla/web2py/applications/webofscience/views/default/index.html'
p5
sS'code'
p6
S'response.write(\'<!DOCTYPE html>\\n<html lang="en">\\n\\t<head>\\n\\t\\t<meta http-equiv="content-type" content="text/html; charset=UTF-8">\\n\\t\\t<meta charset="utf-8">\\n\\t\\t<title>Web Of Science</title>\\n\\t\\t<meta name="generator" content="Bootply" />\\n\\t\\t<meta name="viewport" content="width=device-width, initial-scale=1, maximum-scale=1"/>\\n\\t\\t<link rel="stylesheet" href="\', escape=False)\nresponse.write(URL(\'static\',\'/css/bootstrap.min.css\'))\nresponse.write(\'" />\\n\\t\\t<!--[if lt IE 9]>\\n\\t\\t\\t<script src="//html5shim.googlecode.com/svn/trunk/html5.js"></script>\\n\\t\\t<![endif]-->\\n\\t\\t<link rel="stylesheet" href="\', escape=False)\nresponse.write(URL(\'static\',\'/css/styles.css\'))\nresponse.write(\'"  />\\n\\t\\t<script type="text/javascript" src="\', escape=False)\nresponse.write(URL(\'static\',\'/js/json2.min.js\'))\nresponse.write(\'"></script>\\n\\t\\t<script type="text/javascript" src="\', escape=False)\nresponse.write(URL(\'static\',\'/js/AC_OETags.min.js\'))\nresponse.write(\'"></script>\\n\\t\\t<script type="text/javascript" src="\', escape=False)\nresponse.write(URL(\'static\',\'/js/cytoscapeweb.min.js\'))\nresponse.write(\'"></script>\\n\\t\\t<script src="\', escape=False)\nresponse.write(URL(\'static\',\'/js/jquery.min.js\'))\nresponse.write(\'" type="text/javascript"></script>\\n\\t\\t<script src="\', escape=False)\nresponse.write(URL(\'static\',\'/js/bootstrap.min.js\'))\nresponse.write(\'" type="text/javascript"></script>\\n\\n    <!--Auto Complete-->\\n    <link rel="stylesheet" href="//code.jquery.com/ui/1.12.0/themes/base/jquery-ui.css">\\n  <link rel="stylesheet" href="/resources/demos/style.css">\\n  <script src="https://code.jquery.com/jquery-1.12.4.js"></script>\\n  <script src="https://code.jquery.com/ui/1.12.0/jquery-ui.js"></script>\\n\\t\\t<!--<script src="http://maps.googleapis.com/maps/api/js?sensor=false&extension=.js&output=embed"></script>-->\\n        <script src="\', escape=False)\nresponse.write(URL(\'static\',\'/js/scripts.js\'))\nresponse.write(\'" type="text/javascript"></script>\\n\\t\\t  <script>\\n  \\n  $( function() {\\n    var availableTags = \', escape=False)\nresponse.write(XML(keywordcomplete))\nresponse.write(\'\\n    $( "#textinput" ).autocomplete({\\n      source: availableTags\\n    });\\n  } );\\n  </script>\\n\\t\\t<!--graph content-->\\n\\n\\n\\t\\t\\n        <style>\\n            * { margin: 0; padding: 0; font-family: Helvetica, Arial, Verdana, sans-serif; }\\n            html, body { height: 100%; width: 100%; padding: 0; margin: 0; background-color: #f0f0f0; }\\n            body { line-height: 1.5; color: #000000; font-size: 14px; }\\n            /* The Cytoscape Web container must have its dimensions set. */\\n            #cytoscapeweb { width: 100%; height: 80%; }\\n            #note { width: 100%; text-align: center; padding-top: 1em; }\\n            .link { text-decoration: underline; color: #0b94b1; cursor: pointer; }\\n        </style>\\n\\t\\t<!--endof graph content-->\\n\\t</head>\\n\\t<body>\\n<!-- begin template -->\\n<div class="navbar navbar-custom navbar-fixed-top">\\n <div class="navbar-header"><a class="navbar-brand" href="#">Brand</a>\\n      <a class="navbar-toggle" data-toggle="collapse" data-target=".navbar-collapse">\\n        <span class="icon-bar"></span>\\n        <span class="icon-bar"></span>\\n        <span class="icon-bar"></span>\\n      </a>\\n    </div>\\n    <div class="navbar-collapse collapse">\\n      <ul class="nav navbar-nav">\\n        <li class="active"><a href="#">Home</a></li>\\n        <li><a href="#">Link</a></li>\\n        <li><a href="#">Link</a></li>\\n        <li>&nbsp;</li>\\n      </ul>\\n      <form class="navbar-form" id ="lol" >\\n        <div class="form-group" style="display:inline;">\\n          <div class="input-group">\\n            <div class="input-group-btn">\\n              <button type="button" class="btn btn-default dropdown-toggle" data-toggle="dropdown"><span class="glyphicon glyphicon-chevron-down"></span></button>\\n              <ul class="dropdown-menu">\\n                <li><a href="#">Category 1</a></li>\\n                <li><a href="#">Category 2</a></li>\\n                <li><a href="#">Category 3</a></li>\\n                <li><a href="#">Category 4</a></li>\\n                <li><a href="#">Category 5</a></li>\\n              </ul>\\n            </div>\\n            <input type="text" class="form-control" id="textinput"placeholder="Enter a Keyword" name="inputkeyword" >\\n            \\n            <button class="btn btn-default" type="submit"  method="post"><span class="glyphicon glyphicon-search"></span> </button>\\n          </div>\\n        </div>\\n      </form>\\n    </div>\\n</div>\\n\\n<div id="map-canvas">\\n\\t<embed src="\', escape=False)\nresponse.write(URL(\'static\',\'/swf/CytoscapeWeb.swf\'))\nresponse.write(\'" width="100%" height="100%" align="middle" id="cytoscapeWeb1" quality="high" bgcolor="#ffffff" name="cytoscapeWeb1" allowscriptaccess="always" pluginspage="http://www.adobe.com/go/getflashplayer" wmode="opaque" flashvars="id=cytoscapeWeb1" type="application/x-shockwave-flash">\\n</div>\\n<div class="container-fluid" id="main">\\n  <div class="row">\\n  \\t<div class="col-xs-8" id="left">\\n      \', escape=False)\nresponse.write(\'\\n\', escape=False)\nif keyword:\n    response.write(\'\\n<div class="panel panel-default">\\n  <div class="panel-heading"><p>Results for \\\' <b id="keyword">\', escape=False)\n    response.write(keyword)\n    response.write("</b> \': (", escape=False)\n    response.write(length)\n    response.write(\' matches found!)</p></div>\\n</div>\\n<hr>\\n<div class="table-responsive">\\n  <table class="table">\\n    <thead>\\n      <tr>\\n        <th>#</th>\\n        <th>Author</th>\\n        <th>Number of Publications</th>\\n\\n      </tr>\\n    </thead>\\n    <tbody>\\n      \', escape=False)\n    for i in range(len(facetList[0])):\n        response.write(\'\\n      <tr>\\n\\n        <td>\', escape=False)\n        response.write(i+1)\n        response.write(\'</td>\\n\\n        <td id="author" ><a href="/webofscience/default/author/\', escape=False)\n        response.write(facetList[0][i])\n        response.write(\'/">\', escape=False)\n        response.write(facetList[0][i])\n        response.write(\'</a>\\n          \\n          </td>\\n        <td id="publications">\', escape=False)\n        response.write(facetList[1][i])\n        response.write(\'</td>\\n      </tr>\\n      \', escape=False)\n        pass\n    response.write(\'\\n    </tbody>\\n  </table>\\n  </div>\\n\', escape=False)\n    pass\nresponse.write(\'\\n<!--Pagination-->\\n\', escape=False)\nif not total > 0:\n    response.write(\'\\n  No results\\n\', escape=False)\nelse:\n    response.write("\\n  <div id=\'items-container\'>\\n    <div id=\'items-nav\'>\\n      <span class=\'header\'>Showing ", escape=False)\n    response.write(start)\n    response.write(\' to \', escape=False)\n    response.write(end)\n    response.write(\' of \', escape=False)\n    response.write(total)\n    response.write(\'</span><br />\\n      \', escape=False)\n    if prev != None:\n        response.write("\\n      <a href=\'show_items?ipp=", escape=False)\n        response.write(I)\n        response.write(\'&page=\', escape=False)\n        response.write(prev)\n        response.write("\' class=\'prev p-nav\' style=\'float: left\'>&lt; Prev</a>\\n      ", escape=False)\n        pass\n    response.write(\'\\n\\n      \', escape=False)\n    if next != None:\n        response.write("\\n      <a href=\'show_items?ipp=", escape=False)\n        response.write(I)\n        response.write(\'&page=\', escape=False)\n        response.write(next)\n        response.write("\' class=\'next p-nav\' style=\'float: right\'>Next &gt;</a>\\n      ", escape=False)\n        pass\n    response.write(\'\\n    </div>\\n\\n   \\n  </div>\\n\', escape=False)\n    pass\nresponse.write(\'\\n\\n<script src="\', escape=False)\nresponse.write(URL(\'static\',\'/js/draw_graph.js\'))\nresponse.write(\'" type="text/javascript"></script>\\n\\n\', escape=False)\nresponse.write(\'\\n\\t\\t</div>\\n  </div>\\n</div>\\n<!-- end template -->\\n\\n\\t<!-- script references -->\\n\\n\\t</body>\\n</html>\\n\', escape=False)'
p7
sS'snapshot'
p8
(dp9
sS'traceback'
p10
S'Traceback (most recent call last):\n  File "/home/damla/web2py/gluon/restricted.py", line 227, in restricted\n    exec ccode in environment\n  File "/home/damla/web2py/applications/webofscience/views/default/index.html", line 63, in <module>\n  File "/home/damla/web2py/gluon/globals.py", line 430, in write\n    self.body.write(xmlescape(data))\n  File "/home/damla/web2py/gluon/html.py", line 131, in xmlescape\n    return data.xml()\nTypeError: unbound method xml() must be called with I instance as first argument (got nothing instead)\n'
p11
s.