(dp1
S'output'
p2
S"<type 'exceptions.KeyError'> 'keywords'"
p3
sS'layer'
p4
S'/home/damla/web2py/applications/webofsciencenew/views/default/author.html'
p5
sS'code'
p6
S'response.write(\'<!DOCTYPE html>\\n<html lang="en">\\n\\t<head>\\n\\t\\t<meta http-equiv="content-type" content="text/html; charset=UTF-8">\\n\\t\\t<meta charset="utf-8">\\n\\t\\t<title>Web Of Science</title>\\n\\t\\t<meta name="generator" content="Bootply" />\\n\\t\\t<meta name="viewport" content="width=device-width, initial-scale=1, maximum-scale=1"/>\\n\\t\\t<link rel="stylesheet" href="\', escape=False)\nresponse.write(URL(\'static\',\'/css/bootstrap.min.css\'))\nresponse.write(\'" />\\n\\t\\t<!--[if lt IE 9]>\\n\\t\\t\\t<script src="//html5shim.googlecode.com/svn/trunk/html5.js"></script>\\n\\t\\t<![endif]-->\\n\\t\\t<link rel="stylesheet" href="\', escape=False)\nresponse.write(URL(\'static\',\'/css/styles.css\'))\nresponse.write(\'"  />\\n\\n\\t\\t<!--graph content-->\\n\\n\\n\\t\\t<script type="text/javascript">\\n            window.onload = function() {\\n                // id of Cytoscape Web container div\\n                var div_id = "cytoscapeweb";\\n\\n                // NOTE: - the attributes on nodes and edges\\n                //       - it also has directed edges, which will automatically display edge arrows\\n                var xml = \\\'\\\\\\n                <graphml>\\\\\\n                  <key id="label" for="all" attr.name="label" attr.type="string"/>\\\\\\n                  <key id="weight" for="node" attr.name="weight" attr.type="double"/>\\\\\\n                  <graph edgedefault="directed">\\\\\\n                    <node id="1">\\\\\\n                        <data key="label">A</data>\\\\\\n                        <data key="weight">2.0</data>\\\\\\n                    </node>\\\\\\n                    <node id="2">\\\\\\n                        <data key="label">B</data>\\\\\\n                        <data key="weight">1.5</data>\\\\\\n                    </node>\\\\\\n                    <node id="3">\\\\\\n                        <data key="label">C</data>\\\\\\n                        <data key="weight">1.0</data>\\\\\\n                    </node>\\\\\\n                    <edge source="1" target="2">\\\\\\n                        <data key="label">A to B</data>\\\\\\n                    </edge>\\\\\\n                    <edge source="1" target="3">\\\\\\n                        <data key="label">A to C</data>\\\\\\n                    </edge>\\\\\\n                  </graph>\\\\\\n                </graphml>\\\\\\n                \\\';\\n\\n                function rand_color() {\\n                    function rand_channel() {\\n                        return Math.round( Math.random() * 255 );\\n                    }\\n\\n                    function hex_string(num) {\\n                        var ret = num.toString(16);\\n\\n                        if (ret.length < 2) {\\n                            return "0" + ret;\\n                        } else {\\n                            return ret;\\n                        }\\n                    }\\n\\n                    var r = rand_channel();\\n                    var g = rand_channel();\\n                    var b = rand_channel();\\n\\n                    return "#" + hex_string(r) + hex_string(g) + hex_string(b);\\n                }\\n\\n                // visual style we will use\\n                var visual_style = {\\n                    global: {\\n                        backgroundColor: "#ABCFD6"\\n                    },\\n                    nodes: {\\n                        shape: "CIRCLE",\\n                        borderWidth: 3,\\n                        borderColor: "#ffffff",\\n                        size: {\\n                            defaultValue: 25,\\n                            continuousMapper: { attrName: "weight", minValue: 25, maxValue: 75 }\\n                        },\\n                        color: {\\n                            discreteMapper: {\\n                                attrName: "id",\\n                                entries: [\\n                                    { attrValue: 1, value: "#0B94B1" },\\n                                    { attrValue: 2, value: "#9A0B0B" },\\n                                    { attrValue: 3, value: "#dddd00" }\\n                                ]\\n                            }\\n                        },\\n                        labelHorizontalAnchor: "center"\\n                    },\\n                    edges: {\\n                        width: 3,\\n                        color: "#0B94B1"\\n                    }\\n                };\\n\\n                // initialization options\\n                var options = {\\n                    swfPath: "\', escape=False)\nresponse.write(URL(\'static\',\'/swf/CytoscapeWeb\'))\nresponse.write(\'",\\n                    flashInstallerPath: "\', escape=False)\nresponse.write(URL(\'static\',\'/swf/playerProductInstall\'))\nresponse.write(\'"\\n                };\\n\\n                var vis = new org.cytoscapeweb.Visualization(div_id, options);\\n\\n                vis.ready(function() {\\n                    // set the style programmatically\\n                    document.getElementById("color").onclick = function(){\\n                        visual_style.global.backgroundColor = rand_color();\\n                        vis.visualStyle(visual_style);\\n                    };\\n                });\\n\\n                var draw_options = {\\n\\n\\t\\t\\t\\t\\t\\t\\t\\t\\t\\t// your data goes here\\n\\t\\t\\t\\t\\t\\t\\t\\t\\t\\t/*$.ajax({\\n            type: "GET",\\n            url: "data.json",\\n            dataType: "json",\\n                        error: function(){\\n                alert("Error loading file");\\n            },\\nsuccess: function(data){\\n}\\n});\\nvar netwdata = data.elements[0];\\nvis.draw({ network: netwdata });*/\\n\\n                    network: xml,\\n\\n                    // show edge labels too\\n                    edgeLabelsVisible: true,\\n\\n                    // let\\\'s try another layout\\n                    layout: "Tree",\\n\\n                    // set the style at initialisation\\n                    visualStyle: visual_style,\\n\\n                    // hide pan zoom\\n                    panZoomControlVisible: true\\n                };\\n\\n                vis.draw(draw_options);\\n            };\\n        </script>\\n\\n        <style>\\n            * { margin: 0; padding: 0; font-family: Helvetica, Arial, Verdana, sans-serif; }\\n            html, body { height: 100%; width: 100%; padding: 0; margin: 0; background-color: #f0f0f0; }\\n            body { line-height: 1.5; color: #000000; font-size: 14px; }\\n            /* The Cytoscape Web container must have its dimensions set. */\\n            #cytoscapeweb { width: 100%; height: 80%; }\\n            #note { width: 100%; text-align: center; padding-top: 1em; }\\n            .link { text-decoration: underline; color: #0b94b1; cursor: pointer; }\\n        </style>\\n\\t\\t<!--endof graph content-->\\n\\t</head>\\n\\t<body>\\n<!-- begin template -->\\n<div class="navbar navbar-custom navbar-fixed-top">\\n <div class="navbar-header"><a class="navbar-brand" href="#">Brand</a>\\n      <a class="navbar-toggle" data-toggle="collapse" data-target=".navbar-collapse">\\n        <span class="icon-bar"></span>\\n        <span class="icon-bar"></span>\\n        <span class="icon-bar"></span>\\n      </a>\\n    </div>\\n    <div class="navbar-collapse collapse">\\n      <ul class="nav navbar-nav">\\n        <li class="active"><a href="#">Home</a></li>\\n        <li><a href="#">Link</a></li>\\n        <li><a href="#">Link</a></li>\\n        <li>&nbsp;</li>\\n      </ul>\\n      <form class="navbar-form">\\n        <div class="form-group" style="display:inline;">\\n          <div class="input-group">\\n            <div class="input-group-btn">\\n              <button type="button" class="btn btn-default dropdown-toggle" data-toggle="dropdown"><span class="glyphicon glyphicon-chevron-down"></span></button>\\n              <ul class="dropdown-menu">\\n                <li><a href="#">Category 1</a></li>\\n                <li><a href="#">Category 2</a></li>\\n                <li><a href="#">Category 3</a></li>\\n                <li><a href="#">Category 4</a></li>\\n                <li><a href="#">Category 5</a></li>\\n              </ul>\\n            </div>\\n            <input type="text" class="form-control" id="textinput"placeholder="Enter a Keyword" name="inputkeyword">\\n            <button class="btn btn-default" type="submit"  method="post"><span class="glyphicon glyphicon-search"></span> </button>\\n          </div>\\n        </div>\\n      </form>\\n    </div>\\n</div>\\n\\n<div id="map-canvas">\\n\\t<embed src="\', escape=False)\nresponse.write(URL(\'static\',\'/swf/CytoscapeWeb.swf\'))\nresponse.write(\'" width="100%" height="100%" align="middle" id="cytoscapeWeb1" quality="high" bgcolor="#ffffff" name="cytoscapeWeb1" allowscriptaccess="always" pluginspage="http://www.adobe.com/go/getflashplayer" wmode="opaque" flashvars="id=cytoscapeWeb1" type="application/x-shockwave-flash">\\n</div>\\n<div class="container-fluid" id="main">\\n  <div class="row">\\n  \\t<div class="col-xs-8" id="left">\\n      \', escape=False)\nresponse.write(\'\\n\\n<font color="blue">Results for \', escape=False)\nresponse.write(keyword)\nresponse.write(\':</font> (\', escape=False)\nresponse.write(matches)\nresponse.write(\' matches found!)<br>\\n<h3><b>Author Information</b></h3>\\n<ul id ="list">\\n<li><b>Name: </b>\', escape=False)\nresponse.write(authorname[1:-1])\nresponse.write(\'</li>\\n<li><b>Address: </b>\\n\', escape=False)\nfor article in articles:\n    response.write(\'\\n\\n  \', escape=False)\n    for author in article[\'authors\']:\n        response.write(\'\\n\\n      \', escape=False)\n        if author in authorname:\n            response.write(\'\\n        \', escape=False)\n            index=article[\'authors\'].index(author)\n            response.write(\'\\n      \', escape=False)\n        else:\n            continue\n        response.write(\'\\n  \', escape=False)\n        pass\n    response.write(\'\\n  \', escape=False)\n    if \'revisedAddress\' in article :\n        response.write(\'\\n    \', escape=False)\n        response.write(article[\'revisedAddress\'][index][4:-4])\n        response.write(\'\\n\\n      \', escape=False)\n        break\n    response.write(\'\\n  \', escape=False)\nelse:\n    response.write(\'\\n      \', escape=False)\n    for address in article[\'address\']:\n        response.write(\'\\n\\n        \', escape=False)\n        address[4:-2]\n        response.write(\'\\n      \', escape=False)\n        pass\n    response.write(\'\\n  \', escape=False)\n    pass\nresponse.write(\'\\n\', escape=False)\npass\nresponse.write(\'\\n</li>\\n</ul>\\n<hr>\\n<h3><b>Articles</b></h3>\\n  \', escape=False)\nfor article in articles:\n    response.write(\'\\n<div id="page-wrapper">\\n\\n      <div class="row" >\\n            <div class="col-lg-12">\\n\\n              <ul id="list">\\n                <li>\\n                <b>Title</b> \', escape=False)\n    response.write(article[\'title\'][0])\n    response.write(\'\\n                </li>\\n                <li>\\n                <b>Research Areas:</b> \', escape=False)\n    response.write(article[\'researchareas\'][0])\n    response.write(\'\\n                </li>\\n                <li>\\n                <b>Keywords:</b> \', escape=False)\n    response.write(article[\'keywords\'][0])\n    response.write(\'\\n                </li>\\n                <li>\\n                <b>Authors:</b>\\n                \', escape=False)\n    for author in article[\'authors\']:\n        response.write(\'\\n                \', escape=False)\n        response.write(author)\n        response.write(\'\\n                    \', escape=False)\n        if author in authorname:\n            response.write(\'\\n                      \', escape=False)\n            index=article[\'authors\'].index(author)\n            response.write(\'\\n                    \', escape=False)\n        else:\n            continue\n        response.write(\'\\n                \', escape=False)\n        pass\n    response.write(\'\\n                </li>\\n\\n\\n              </ul>\\n            </div>\\n      </div>\\n</div>\\n\', escape=False)\n    pass\nresponse.write(\'\\n\', escape=False)\nresponse.write(\'\\n\\t\\t</div>\\n  </div>\\n</div>\\n<!-- end template -->\\n\\n\\t<!-- script references -->\\n\\t\\t<script type="text/javascript" src="\', escape=False)\nresponse.write(URL(\'static\',\'/js/json2.min.js\'))\nresponse.write(\'"></script>\\n\\t\\t<script type="text/javascript" src="\', escape=False)\nresponse.write(URL(\'static\',\'/js/AC_OETags.min.js\'))\nresponse.write(\'"></script>\\n\\t\\t<script type="text/javascript" src="\', escape=False)\nresponse.write(URL(\'static\',\'/js/cytoscapeweb.min.js\'))\nresponse.write(\'"></script>\\n\\t\\t<script src="\', escape=False)\nresponse.write(URL(\'static\',\'/js/jquery.min.js\'))\nresponse.write(\'" type="text/javascript"></script>\\n\\t\\t<script src="\', escape=False)\nresponse.write(URL(\'static\',\'/js/bootstrap.min.js\'))\nresponse.write(\'" type="text/javascript"></script>\\n\\t\\t<!--<script src="http://maps.googleapis.com/maps/api/js?sensor=false&extension=.js&output=embed"></script>-->\\n\\t\\t<script src="\', escape=False)\nresponse.write(URL(\'static\',\'/js/scripts.js\'))\nresponse.write(\'" type="text/javascript"></script>\\n\\t</body>\\n</html>\\n\', escape=False)'
p7
sS'snapshot'
p8
(dp9
S'exception'
p10
(dp11
S'__hash__'
p12
S"<method-wrapper '__hash__' of exceptions.KeyError object>"
p13
sS'__setattr__'
p14
S"<method-wrapper '__setattr__' of exceptions.KeyError object>"
p15
sS'__reduce_ex__'
p16
S'<built-in method __reduce_ex__ of exceptions.KeyError object>'
p17
sS'__getslice__'
p18
S"<method-wrapper '__getslice__' of exceptions.KeyError object>"
p19
sS'__getitem__'
p20
S"<method-wrapper '__getitem__' of exceptions.KeyError object>"
p21
sS'__setstate__'
p22
S'<built-in method __setstate__ of exceptions.KeyError object>'
p23
sS'args'
p24
S"('keywords',)"
p25
sS'__reduce__'
p26
S'<built-in method __reduce__ of exceptions.KeyError object>'
p27
sS'__str__'
p28
S"<method-wrapper '__str__' of exceptions.KeyError object>"
p29
sS'__format__'
p30
S'<built-in method __format__ of exceptions.KeyError object>'
p31
sS'__getattribute__'
p32
S"<method-wrapper '__getattribute__' of exceptions.KeyError object>"
p33
sS'__class__'
p34
S"<type 'exceptions.KeyError'>"
p35
sS'__unicode__'
p36
S'<built-in method __unicode__ of exceptions.KeyError object>'
p37
sS'__delattr__'
p38
S"<method-wrapper '__delattr__' of exceptions.KeyError object>"
p39
sS'__subclasshook__'
p40
S'<built-in method __subclasshook__ of type object>'
p41
sS'__repr__'
p42
S"<method-wrapper '__repr__' of exceptions.KeyError object>"
p43
sS'__dict__'
p44
S'{}'
p45
sS'__sizeof__'
p46
S'<built-in method __sizeof__ of exceptions.KeyError object>'
p47
sS'__doc__'
p48
S"'Mapping key not found.'"
p49
sS'__init__'
p50
S"<method-wrapper '__init__' of exceptions.KeyError object>"
p51
sS'__new__'
p52
S'<built-in method __new__ of type object>'
p53
ssS'evalue'
p54
S"'keywords'"
p55
sS'request'
p56
cgluon.html
XML_unpickle
p57
(S's\x7f\\\x00\x00<div><table><tr><td style="font-weight:bold;vertical-align:top;">ajax</td><td style="vertical-align:top;">:</td><td><div>False</div></td></tr><tr><td style="font-weight:bold;vertical-align:top;">application</td><td style="vertical-align:top;">:</td><td><div>webofsciencenew</div></td></tr><tr><td style="font-weight:bold;vertical-align:top;">args</td><td style="vertical-align:top;">:</td><td><div><table><tr><td><div>_image_processing_</div></td></tr><tr><td><div>Sankur__B</div></td></tr></table></div></td></tr><tr><td style="font-weight:bold;vertical-align:top;">cid</td><td style="vertical-align:top;">:</td><td><div>None</div></td></tr><tr><td style="font-weight:bold;vertical-align:top;">client</td><td style="vertical-align:top;">:</td><td><div>127.0.0.1</div></td></tr><tr><td style="font-weight:bold;vertical-align:top;">controller</td><td style="vertical-align:top;">:</td><td><div>default</div></td></tr><tr><td style="font-weight:bold;vertical-align:top;">cookies</td><td style="vertical-align:top;">:</td><td><div><table><tr><td style="font-weight:bold;vertical-align:top;">session_id_admin</td><td style="vertical-align:top;">:</td><td><div>127.0.0.1-e4ff075b-ae93-4ff3-9c91-4d74210d6e35<table><tr><td style="font-weight:bold;vertical-align:top;">comment</td><td style="vertical-align:top;">:</td><td><div></div></td></tr><tr><td style="font-weight:bold;vertical-align:top;">domain</td><td style="vertical-align:top;">:</td><td><div></div></td></tr><tr><td style="font-weight:bold;vertical-align:top;">expires</td><td style="vertical-align:top;">:</td><td><div></div></td></tr><tr><td style="font-weight:bold;vertical-align:top;">httponly</td><td style="vertical-align:top;">:</td><td><div></div></td></tr><tr><td style="font-weight:bold;vertical-align:top;">max-age</td><td style="vertical-align:top;">:</td><td><div></div></td></tr><tr><td style="font-weight:bold;vertical-align:top;">path</td><td style="vertical-align:top;">:</td><td><div></div></td></tr><tr><td style="font-weight:bold;vertical-align:top;">secure</td><td style="vertical-align:top;">:</td><td><div></div></td></tr><tr><td style="font-weight:bold;vertical-align:top;">version</td><td style="vertical-align:top;">:</td><td><div></div></td></tr></table></div></td></tr><tr><td style="font-weight:bold;vertical-align:top;">session_id_webofsciencenew</td><td style="vertical-align:top;">:</td><td><div>127.0.0.1-3d077855-9344-4b88-a216-f85866df2cdb<table><tr><td style="font-weight:bold;vertical-align:top;">comment</td><td style="vertical-align:top;">:</td><td><div></div></td></tr><tr><td style="font-weight:bold;vertical-align:top;">domain</td><td style="vertical-align:top;">:</td><td><div></div></td></tr><tr><td style="font-weight:bold;vertical-align:top;">expires</td><td style="vertical-align:top;">:</td><td><div></div></td></tr><tr><td style="font-weight:bold;vertical-align:top;">httponly</td><td style="vertical-align:top;">:</td><td><div></div></td></tr><tr><td style="font-weight:bold;vertical-align:top;">max-age</td><td style="vertical-align:top;">:</td><td><div></div></td></tr><tr><td style="font-weight:bold;vertical-align:top;">path</td><td style="vertical-align:top;">:</td><td><div></div></td></tr><tr><td style="font-weight:bold;vertical-align:top;">secure</td><td style="vertical-align:top;">:</td><td><div></div></td></tr><tr><td style="font-weight:bold;vertical-align:top;">version</td><td style="vertical-align:top;">:</td><td><div></div></td></tr></table></div></td></tr><tr><td style="font-weight:bold;vertical-align:top;">session_id_welcome</td><td style="vertical-align:top;">:</td><td><div>127.0.0.1-35965553-0763-4ca6-b1ed-13e78d77e057<table><tr><td style="font-weight:bold;vertical-align:top;">comment</td><td style="vertical-align:top;">:</td><td><div></div></td></tr><tr><td style="font-weight:bold;vertical-align:top;">domain</td><td style="vertical-align:top;">:</td><td><div></div></td></tr><tr><td style="font-weight:bold;vertical-align:top;">expires</td><td style="vertical-align:top;">:</td><td><div></div></td></tr><tr><td style="font-weight:bold;vertical-align:top;">httponly</td><td style="vertical-align:top;">:</td><td><div></div></td></tr><tr><td style="font-weight:bold;vertical-align:top;">max-age</td><td style="vertical-align:top;">:</td><td><div></div></td></tr><tr><td style="font-weight:bold;vertical-align:top;">path</td><td style="vertical-align:top;">:</td><td><div></div></td></tr><tr><td style="font-weight:bold;vertical-align:top;">secure</td><td style="vertical-align:top;">:</td><td><div></div></td></tr><tr><td style="font-weight:bold;vertical-align:top;">version</td><td style="vertical-align:top;">:</td><td><div></div></td></tr></table></div></td></tr></table></div></td></tr><tr><td style="font-weight:bold;vertical-align:top;">env</td><td style="vertical-align:top;">:</td><td><div><table><tr><td style="font-weight:bold;vertical-align:top;">HTTP_ACCEPT</td><td style="vertical-align:top;">:</td><td><div>text/html,application/xhtml+xml,application/xml;q=0.9,image/webp,*/*;q=0.8</div></td></tr><tr><td style="font-weight:bold;vertical-align:top;">HTTP_ACCEPT_ENCODING</td><td style="vertical-align:top;">:</td><td><div>gzip, deflate, sdch</div></td></tr><tr><td style="font-weight:bold;vertical-align:top;">HTTP_ACCEPT_LANGUAGE</td><td style="vertical-align:top;">:</td><td><div>tr-TR,tr;q=0.8,en-US;q=0.6,en;q=0.4</div></td></tr><tr><td style="font-weight:bold;vertical-align:top;">HTTP_CACHE_CONTROL</td><td style="vertical-align:top;">:</td><td><div>max-age=0</div></td></tr><tr><td style="font-weight:bold;vertical-align:top;">HTTP_CONNECTION</td><td style="vertical-align:top;">:</td><td><div>keep-alive</div></td></tr><tr><td style="font-weight:bold;vertical-align:top;">HTTP_COOKIE</td><td style="vertical-align:top;">:</td><td><div>_ga=GA1.1.1065602752.1463081039; session_id_welcome=127.0.0.1-35965553-0763-4ca6-b1ed-13e78d77e057; session_id_admin=127.0.0.1-e4ff075b-ae93-4ff3-9c91-4d74210d6e35; session_id_webofsciencenew=127.0.0.1-3d077855-9344-4b88-a216-f85866df2cdb</div></td></tr><tr><td style="font-weight:bold;vertical-align:top;">HTTP_HOST</td><td style="vertical-align:top;">:</td><td><div>127.0.0.1:8000</div></td></tr><tr><td style="font-weight:bold;vertical-align:top;">HTTP_UPGRADE_INSECURE_REQUESTS</td><td style="vertical-align:top;">:</td><td><div>1</div></td></tr><tr><td style="font-weight:bold;vertical-align:top;">HTTP_USER_AGENT</td><td style="vertical-align:top;">:</td><td><div>Mozilla/5.0 (X11; Linux x86_64) AppleWebKit/537.36 (KHTML, like Gecko) Chrome/51.0.2704.103 Safari/537.36</div></td></tr><tr><td style="font-weight:bold;vertical-align:top;">PATH_INFO</td><td style="vertical-align:top;">:</td><td><div>/webofsciencenew/default/author/&quot;image processing&quot;/Sankur, B</div></td></tr><tr><td style="font-weight:bold;vertical-align:top;">QUERY_STRING</td><td style="vertical-align:top;">:</td><td><div></div></td></tr><tr><td style="font-weight:bold;vertical-align:top;">REMOTE_ADDR</td><td style="vertical-align:top;">:</td><td><div>127.0.0.1</div></td></tr><tr><td style="font-weight:bold;vertical-align:top;">REMOTE_PORT</td><td style="vertical-align:top;">:</td><td><div>54542</div></td></tr><tr><td style="font-weight:bold;vertical-align:top;">REQUEST_METHOD</td><td style="vertical-align:top;">:</td><td><div>GET</div></td></tr><tr><td style="font-weight:bold;vertical-align:top;">SCRIPT_NAME</td><td style="vertical-align:top;">:</td><td><div></div></td></tr><tr><td style="font-weight:bold;vertical-align:top;">SERVER_NAME</td><td style="vertical-align:top;">:</td><td><div>damla</div></td></tr><tr><td style="font-weight:bold;vertical-align:top;">SERVER_PORT</td><td style="vertical-align:top;">:</td><td><div>8000</div></td></tr><tr><td style="font-weight:bold;vertical-align:top;">SERVER_PROTOCOL</td><td style="vertical-align:top;">:</td><td><div>HTTP/1.1</div></td></tr><tr><td style="font-weight:bold;vertical-align:top;">SERVER_SOFTWARE</td><td style="vertical-align:top;">:</td><td><div>Rocket 1.2.6</div></td></tr><tr><td style="font-weight:bold;vertical-align:top;">app_folders</td><td style="vertical-align:top;">:</td><td><div>set([&#x27;/home/damla/web2py/applications/welcome/&#x27;, &#x27;/home/damla/web2py/applications/admin/&#x27;, &#x27;/home/damla/web2py/applications/webofsciencenew/&#x27;])</div></td></tr><tr><td style="font-weight:bold;vertical-align:top;">applications_parent</td><td style="vertical-align:top;">:</td><td><div>/home/damla/web2py</div></td></tr><tr><td style="font-weight:bold;vertical-align:top;">cmd_args</td><td style="vertical-align:top;">:</td><td><div><table></table></div></td></tr><tr><td style="font-weight:bold;vertical-align:top;">cmd_options</td><td style="vertical-align:top;">:</td><td><div>&lt;Values at 0x7fc9459623b0: {&#x27;verbose&#x27;: False, &#x27;ip&#x27;: &#x27;127.0.0.1&#x27;, &#x27;debuglevel&#x27;: 30, &#x27;with_scheduler&#x27;: False, &#x27;shutdown_timeout&#x27;: 5, &#x27;taskbar&#x27;: False, &#x27;with_coverage&#x27;: False, &#x27;pid_filename&#x27;: &#x27;httpserver.pid&#x27;, &#x27;maxthreads&#x27;: None, &#x27;softcron&#x27;: False, &#x27;server_name&#x27;: &#x27;damla&#x27;, &#x27;bpython&#x27;: False, &#x27;nogui&#x27;: False, &#x27;port&#x27;: 8000, &#x27;print_errors&#x27;: False, &#x27;extcron&#x27;: False, &#x27;runcron&#x27;: False, &#x27;run_system_tests&#x27;: False, &#x27;test&#x27;: None, &#x27;folder&#x27;: &#x27;/home/damla/web2py&#x27;, &#x27;config&#x27;: &#x27;&#x27;, &#x27;minthreads&#x27;: None, &#x27;shell&#x27;: None, &#x27;run&#x27;: &#x27;&#x27;, &#x27;log_filename&#x27;: &#x27;httpserver.log&#x27;, &#x27;profiler_dir&#x27;: None, &#x27;args&#x27;: [&#x27;&#x27;], &#x27;socket_timeout&#x27;: 5, &#x27;ssl_ca_certificate&#x27;: None, &#x27;scheduler&#x27;: None, &#x27;interfaces&#x27;: None, &#x27;ssl_private_key&#x27;: &#x27;&#x27;, &#x27;gae&#x27;: None, &#x27;password&#x27;: &#x27;******&#x27;, &#x27;request_queue_size&#x27;: 5, &#x27;ssl_certificate&#x27;: &#x27;&#x27;, &#x27;cronjob&#x27;: False, &#x27;numthreads&#x27;: None, &#x27;quiet&#x27;: False, &#x27;import_models&#x27;: False, &#x27;timeout&#x27;: 10, &#x27;plain&#x27;: False, &#x27;nobanner&#x27;: False}&gt;</div></td></tr><tr><td style="font-weight:bold;vertical-align:top;">db_sessions</td><td style="vertical-align:top;">:</td><td><div>set([])</div></td></tr><tr><td style="font-weight:bold;vertical-align:top;">debugging</td><td style="vertical-align:top;">:</td><td><div>False</div></td></tr><tr><td style="font-weight:bold;vertical-align:top;">gluon_parent</td><td style="vertical-align:top;">:</td><td><div>/home/damla/web2py</div></td></tr><tr><td style="font-weight:bold;vertical-align:top;">http_accept</td><td style="vertical-align:top;">:</td><td><div>text/html,application/xhtml+xml,application/xml;q=0.9,image/webp,*/*;q=0.8</div></td></tr><tr><td style="font-weight:bold;vertical-align:top;">http_accept_encoding</td><td style="vertical-align:top;">:</td><td><div>gzip, deflate, sdch</div></td></tr><tr><td style="font-weight:bold;vertical-align:top;">http_accept_language</td><td style="vertical-align:top;">:</td><td><div>tr-TR,tr;q=0.8,en-US;q=0.6,en;q=0.4</div></td></tr><tr><td style="font-weight:bold;vertical-align:top;">http_cache_control</td><td style="vertical-align:top;">:</td><td><div>max-age=0</div></td></tr><tr><td style="font-weight:bold;vertical-align:top;">http_connection</td><td style="vertical-align:top;">:</td><td><div>keep-alive</div></td></tr><tr><td style="font-weight:bold;vertical-align:top;">http_cookie</td><td style="vertical-align:top;">:</td><td><div>_ga=GA1.1.1065602752.1463081039; session_id_welcome=127.0.0.1-35965553-0763-4ca6-b1ed-13e78d77e057; session_id_admin=127.0.0.1-e4ff075b-ae93-4ff3-9c91-4d74210d6e35; session_id_webofsciencenew=127.0.0.1-3d077855-9344-4b88-a216-f85866df2cdb</div></td></tr><tr><td style="font-weight:bold;vertical-align:top;">http_host</td><td style="vertical-align:top;">:</td><td><div>127.0.0.1:8000</div></td></tr><tr><td style="font-weight:bold;vertical-align:top;">http_upgrade_insecure_requests</td><td style="vertical-align:top;">:</td><td><div>1</div></td></tr><tr><td style="font-weight:bold;vertical-align:top;">http_user_agent</td><td style="vertical-align:top;">:</td><td><div>Mozilla/5.0 (X11; Linux x86_64) AppleWebKit/537.36 (KHTML, like Gecko) Chrome/51.0.2704.103 Safari/537.36</div></td></tr><tr><td style="font-weight:bold;vertical-align:top;">is_jython</td><td style="vertical-align:top;">:</td><td><div>False</div></td></tr><tr><td style="font-weight:bold;vertical-align:top;">is_pypy</td><td style="vertical-align:top;">:</td><td><div>False</div></td></tr><tr><td style="font-weight:bold;vertical-align:top;">is_source</td><td style="vertical-align:top;">:</td><td><div>True</div></td></tr><tr><td style="font-weight:bold;vertical-align:top;">local_hosts</td><td style="vertical-align:top;">:</td><td><div><table><tr><td><div>damla</div></td></tr><tr><td><div>::1</div></td></tr><tr><td><div>127.0.1.1</div></td></tr><tr><td><div>::ffff:127.0.0.1</div></td></tr><tr><td><div>127.0.0.1</div></td></tr></table></div></td></tr><tr><td style="font-weight:bold;vertical-align:top;">path_info</td><td style="vertical-align:top;">:</td><td><div>/webofsciencenew/default/author/&quot;image processing&quot;/Sankur, B</div></td></tr><tr><td style="font-weight:bold;vertical-align:top;">query_string</td><td style="vertical-align:top;">:</td><td><div></div></td></tr><tr><td style="font-weight:bold;vertical-align:top;">remote_addr</td><td style="vertical-align:top;">:</td><td><div>127.0.0.1</div></td></tr><tr><td style="font-weight:bold;vertical-align:top;">remote_port</td><td style="vertical-align:top;">:</td><td><div>54542</div></td></tr><tr><td style="font-weight:bold;vertical-align:top;">request_method</td><td style="vertical-align:top;">:</td><td><div>GET</div></td></tr><tr><td style="font-weight:bold;vertical-align:top;">request_uri</td><td style="vertical-align:top;">:</td><td><div>/webofsciencenew/default/author/&quot;image processing&quot;/Sankur, B</div></td></tr><tr><td style="font-weight:bold;vertical-align:top;">script_name</td><td style="vertical-align:top;">:</td><td><div></div></td></tr><tr><td style="font-weight:bold;vertical-align:top;">server_name</td><td style="vertical-align:top;">:</td><td><div>damla</div></td></tr><tr><td style="font-weight:bold;vertical-align:top;">server_port</td><td style="vertical-align:top;">:</td><td><div>8000</div></td></tr><tr><td style="font-weight:bold;vertical-align:top;">server_protocol</td><td style="vertical-align:top;">:</td><td><div>HTTP/1.1</div></td></tr><tr><td style="font-weight:bold;vertical-align:top;">server_software</td><td style="vertical-align:top;">:</td><td><div>Rocket 1.2.6</div></td></tr><tr><td style="font-weight:bold;vertical-align:top;">web2py_path</td><td style="vertical-align:top;">:</td><td><div>/home/damla/web2py</div></td></tr><tr><td style="font-weight:bold;vertical-align:top;">web2py_version</td><td style="vertical-align:top;">:</td><td><div>2.14.5-stable+timestamp.2016.04.14.03.26.16</div></td></tr><tr><td style="font-weight:bold;vertical-align:top;">wsgi.errors</td><td style="vertical-align:top;">:</td><td><div>&lt;open file &#x27;&lt;stderr&gt;&#x27;, mode &#x27;w&#x27; at 0x7fc94a0591e0&gt;</div></td></tr><tr><td style="font-weight:bold;vertical-align:top;">wsgi.file_wrapper</td><td style="vertical-align:top;">:</td><td><div>&lt;class wsgiref.util.FileWrapper at 0x7fc94598e940&gt;</div></td></tr><tr><td style="font-weight:bold;vertical-align:top;">wsgi.input</td><td style="vertical-align:top;">:</td><td><div>&lt;socket._fileobject object at 0x7fc9440b6cd0&gt;</div></td></tr><tr><td style="font-weight:bold;vertical-align:top;">wsgi.multiprocess</td><td style="vertical-align:top;">:</td><td><div>False</div></td></tr><tr><td style="font-weight:bold;vertical-align:top;">wsgi.multithread</td><td style="vertical-align:top;">:</td><td><div>True</div></td></tr><tr><td style="font-weight:bold;vertical-align:top;">wsgi.run_once</td><td style="vertical-align:top;">:</td><td><div>False</div></td></tr><tr><td style="font-weight:bold;vertical-align:top;">wsgi.url_scheme</td><td style="vertical-align:top;">:</td><td><div>http</div></td></tr><tr><td style="font-weight:bold;vertical-align:top;">wsgi.version</td><td style="vertical-align:top;">:</td><td><div><table><tr><td><div>1</div></td></tr><tr><td><div>0</div></td></tr></table></div></td></tr><tr><td style="font-weight:bold;vertical-align:top;">wsgi_errors</td><td style="vertical-align:top;">:</td><td><div>&lt;open file &#x27;&lt;stderr&gt;&#x27;, mode &#x27;w&#x27; at 0x7fc94a0591e0&gt;</div></td></tr><tr><td style="font-weight:bold;vertical-align:top;">wsgi_file_wrapper</td><td style="vertical-align:top;">:</td><td><div>&lt;class wsgiref.util.FileWrapper at 0x7fc94598e940&gt;</div></td></tr><tr><td style="font-weight:bold;vertical-align:top;">wsgi_input</td><td style="vertical-align:top;">:</td><td><div>&lt;socket._fileobject object at 0x7fc9440b6cd0&gt;</div></td></tr><tr><td style="font-weight:bold;vertical-align:top;">wsgi_multiprocess</td><td style="vertical-align:top;">:</td><td><div>False</div></td></tr><tr><td style="font-weight:bold;vertical-align:top;">wsgi_multithread</td><td style="vertical-align:top;">:</td><td><div>True</div></td></tr><tr><td style="font-weight:bold;vertical-align:top;">wsgi_run_once</td><td style="vertical-align:top;">:</td><td><div>False</div></td></tr><tr><td style="font-weight:bold;vertical-align:top;">wsgi_url_scheme</td><td style="vertical-align:top;">:</td><td><div>http</div></td></tr><tr><td style="font-weight:bold;vertical-align:top;">wsgi_version</td><td style="vertical-align:top;">:</td><td><div><table><tr><td><div>1</div></td></tr><tr><td><div>0</div></td></tr></table></div></td></tr></table></div></td></tr><tr><td style="font-weight:bold;vertical-align:top;">extension</td><td style="vertical-align:top;">:</td><td><div>html</div></td></tr><tr><td style="font-weight:bold;vertical-align:top;">folder</td><td style="vertical-align:top;">:</td><td><div>/home/damla/web2py/applications/webofsciencenew/</div></td></tr><tr><td style="font-weight:bold;vertical-align:top;">function</td><td style="vertical-align:top;">:</td><td><div>author</div></td></tr><tr><td style="font-weight:bold;vertical-align:top;">global_settings</td><td style="vertical-align:top;">:</td><td><div><table><tr><td style="font-weight:bold;vertical-align:top;">app_folders</td><td style="vertical-align:top;">:</td><td><div>set([&#x27;/home/damla/web2py/applications/welcome/&#x27;, &#x27;/home/damla/web2py/applications/admin/&#x27;, &#x27;/home/damla/web2py/applications/webofsciencenew/&#x27;])</div></td></tr><tr><td style="font-weight:bold;vertical-align:top;">applications_parent</td><td style="vertical-align:top;">:</td><td><div>/home/damla/web2py</div></td></tr><tr><td style="font-weight:bold;vertical-align:top;">cmd_args</td><td style="vertical-align:top;">:</td><td><div><table></table></div></td></tr><tr><td style="font-weight:bold;vertical-align:top;">cmd_options</td><td style="vertical-align:top;">:</td><td><div>&lt;Values at 0x7fc9459623b0: {&#x27;verbose&#x27;: False, &#x27;ip&#x27;: &#x27;127.0.0.1&#x27;, &#x27;debuglevel&#x27;: 30, &#x27;with_scheduler&#x27;: False, &#x27;shutdown_timeout&#x27;: 5, &#x27;taskbar&#x27;: False, &#x27;with_coverage&#x27;: False, &#x27;pid_filename&#x27;: &#x27;httpserver.pid&#x27;, &#x27;maxthreads&#x27;: None, &#x27;softcron&#x27;: False, &#x27;server_name&#x27;: &#x27;damla&#x27;, &#x27;bpython&#x27;: False, &#x27;nogui&#x27;: False, &#x27;port&#x27;: 8000, &#x27;print_errors&#x27;: False, &#x27;extcron&#x27;: False, &#x27;runcron&#x27;: False, &#x27;run_system_tests&#x27;: False, &#x27;test&#x27;: None, &#x27;folder&#x27;: &#x27;/home/damla/web2py&#x27;, &#x27;config&#x27;: &#x27;&#x27;, &#x27;minthreads&#x27;: None, &#x27;shell&#x27;: None, &#x27;run&#x27;: &#x27;&#x27;, &#x27;log_filename&#x27;: &#x27;httpserver.log&#x27;, &#x27;profiler_dir&#x27;: None, &#x27;args&#x27;: [&#x27;&#x27;], &#x27;socket_timeout&#x27;: 5, &#x27;ssl_ca_certificate&#x27;: None, &#x27;scheduler&#x27;: None, &#x27;interfaces&#x27;: None, &#x27;ssl_private_key&#x27;: &#x27;&#x27;, &#x27;gae&#x27;: None, &#x27;password&#x27;: &#x27;******&#x27;, &#x27;request_queue_size&#x27;: 5, &#x27;ssl_certificate&#x27;: &#x27;&#x27;, &#x27;cronjob&#x27;: False, &#x27;numthreads&#x27;: None, &#x27;quiet&#x27;: False, &#x27;import_models&#x27;: False, &#x27;timeout&#x27;: 10, &#x27;plain&#x27;: False, &#x27;nobanner&#x27;: False}&gt;</div></td></tr><tr><td style="font-weight:bold;vertical-align:top;">db_sessions</td><td style="vertical-align:top;">:</td><td><div>set([])</div></td></tr><tr><td style="font-weight:bold;vertical-align:top;">debugging</td><td style="vertical-align:top;">:</td><td><div>False</div></td></tr><tr><td style="font-weight:bold;vertical-align:top;">gluon_parent</td><td style="vertical-align:top;">:</td><td><div>/home/damla/web2py</div></td></tr><tr><td style="font-weight:bold;vertical-align:top;">is_jython</td><td style="vertical-align:top;">:</td><td><div>False</div></td></tr><tr><td style="font-weight:bold;vertical-align:top;">is_pypy</td><td style="vertical-align:top;">:</td><td><div>False</div></td></tr><tr><td style="font-weight:bold;vertical-align:top;">is_source</td><td style="vertical-align:top;">:</td><td><div>True</div></td></tr><tr><td style="font-weight:bold;vertical-align:top;">local_hosts</td><td style="vertical-align:top;">:</td><td><div><table><tr><td><div>damla</div></td></tr><tr><td><div>::1</div></td></tr><tr><td><div>127.0.1.1</div></td></tr><tr><td><div>::ffff:127.0.0.1</div></td></tr><tr><td><div>127.0.0.1</div></td></tr></table></div></td></tr><tr><td style="font-weight:bold;vertical-align:top;">web2py_version</td><td style="vertical-align:top;">:</td><td><div>2.14.5-stable+timestamp.2016.04.14.03.26.16</div></td></tr></table></div></td></tr><tr><td style="font-weight:bold;vertical-align:top;">is_https</td><td style="vertical-align:top;">:</td><td><div>False</div></td></tr><tr><td style="font-weight:bold;vertical-align:top;">is_local</td><td style="vertical-align:top;">:</td><td><div>True</div></td></tr><tr><td style="font-weight:bold;vertical-align:top;">is_restful</td><td style="vertical-align:top;">:</td><td><div>False</div></td></tr><tr><td style="font-weight:bold;vertical-align:top;">is_scheduler</td><td style="vertical-align:top;">:</td><td><div>False</div></td></tr><tr><td style="font-weight:bold;vertical-align:top;">is_shell</td><td style="vertical-align:top;">:</td><td><div>False</div></td></tr><tr><td style="font-weight:bold;vertical-align:top;">now</td><td style="vertical-align:top;">:</td><td><div>datetime.datetime(2016, 6, 27, 20, 47, 46, 442113)</div></td></tr><tr><td style="font-weight:bold;vertical-align:top;">raw_args</td><td style="vertical-align:top;">:</td><td><div>&quot;image processing&quot;/Sankur, B</div></td></tr><tr><td style="font-weight:bold;vertical-align:top;">raw_extension</td><td style="vertical-align:top;">:</td><td><div>None</div></td></tr><tr><td style="font-weight:bold;vertical-align:top;">url</td><td style="vertical-align:top;">:</td><td><div>/webofsciencenew/default/author/&quot;image processing&quot;/Sankur, B</div></td></tr><tr><td style="font-weight:bold;vertical-align:top;">utcnow</td><td style="vertical-align:top;">:</td><td><div>datetime.datetime(2016, 6, 27, 17, 47, 46, 442137)</div></td></tr><tr><td style="font-weight:bold;vertical-align:top;">wsgi</td><td style="vertical-align:top;">:</td><td><div>&lt;gluon.main.LazyWSGI object at 0x7fc91a26afd0&gt;</div></td></tr></table></div>'
tRp58
sS'frames'
p59
(lp60
(dp61
S'file'
p62
S'/home/damla/web2py/gluon/restricted.py'
p63
sS'dump'
p64
(dp65
S'environment'
p66
S"{'A': <class 'gluon.html.A'>, 'ANY_OF': <class 'gluon.validators.ANY_OF'>, 'ASSIGNJS': <function ASSIGNJS>, 'AppConfig': <function AppConfig>, 'Auth': <class 'gluon.tools.Auth'>, 'B': <class 'gluon.html.B'>, 'BEAUTIFY': <class 'gluon.html.BEAUTIFY'>, 'BODY': <class 'gluon.html.BODY'>, 'BR': <class 'gluon.html.BR'>, 'BUTTON': <class 'gluon.html.BUTTON'>, ...}"
p67
sS'ccode'
p68
S'<code object <module> at 0x7fc91a5dd430, file "/...bofsciencenew/views/default/author.html", line 1>'
p69
ssS'lnum'
p70
I227
sS'lines'
p71
(dp72
I224
S'            ccode = code'
p73
sI225
S'        else:'
p74
sI226
S'            ccode = compile2(code, layer)'
p75
sI227
S'        exec ccode in environment'
p76
sI228
S'    except HTTP:'
p77
sI229
S'        raise'
p78
sI230
S'    except RestrictedError:'
p79
sI231
S'        # do not encapsulate (obfuscate) the original RestrictedError'
p80
sI222
S'    try:'
p81
sI223
S'        if isinstance(code, types.CodeType):'
p82
ssS'call'
p83
S'(code=\'response.write(\\\'<!DOCTYPE html>\\\\n<html lang="en"..."></script>\\\\n\\\\t</body>\\\\n</html>\\\\n\\\', escape=False)\', environment={\'A\': <class \'gluon.html.A\'>, \'ANY_OF\': <class \'gluon.validators.ANY_OF\'>, \'ASSIGNJS\': <function ASSIGNJS>, \'AppConfig\': <function AppConfig>, \'Auth\': <class \'gluon.tools.Auth\'>, \'B\': <class \'gluon.html.B\'>, \'BEAUTIFY\': <class \'gluon.html.BEAUTIFY\'>, \'BODY\': <class \'gluon.html.BODY\'>, \'BR\': <class \'gluon.html.BR\'>, \'BUTTON\': <class \'gluon.html.BUTTON\'>, ...}, layer=\'/home/damla/web2py/applications/webofsciencenew/views/default/author.html\')'
p84
sS'func'
p85
S'restricted'
p86
sa(dp87
g62
S'/home/damla/web2py/applications/webofsciencenew/views/default/author.html'
p88
sg64
(dp89
sg70
I56
sg71
(dp90
I64
S"            index=article['authors'].index(author)"
p91
sI65
S"            response.write('\\n                    ', escape=False)"
p92
sI66
S'        else:'
p93
sI47
S"response.write('\\n', escape=False)"
p94
sI48
S'pass'
p95
sI49
S"response.write('\\n</li>\\n</ul>\\n<hr>\\n<h3><b>Articles</b></h3>\\n  ', escape=False)"
p96
sI50
S'for article in articles:'
p97
sI51
S'    response.write(\'\\n<div id="page-wrapper">\\n\\n      <div class="row" >\\n            <div class="col-lg-12">\\n\\n              <ul id="list">\\n                <li>\\n                <b>Title</b> \', escape=False)'
p98
sI52
S"    response.write(article['title'][0])"
p99
sI53
S"    response.write('\\n                </li>\\n                <li>\\n                <b>Research Areas:</b> ', escape=False)"
p100
sI54
S"    response.write(article['researchareas'][0])"
p101
sI55
S"    response.write('\\n                </li>\\n                <li>\\n                <b>Keywords:</b> ', escape=False)"
p102
sI56
S"    response.write(article['keywords'][0])"
p103
sI57
S"    response.write('\\n                </li>\\n                <li>\\n                <b>Authors:</b>\\n                ', escape=False)"
p104
sI58
S"    for author in article['authors']:"
p105
sI59
S"        response.write('\\n                ', escape=False)"
p106
sI60
S'        response.write(author)'
p107
sI61
S"        response.write('\\n                    ', escape=False)"
p108
sI62
S'        if author in authorname:'
p109
sI63
S"            response.write('\\n                      ', escape=False)"
p110
ssg83
S'()'
p111
sg85
S'<module>'
p112
sasS'pyver'
p113
S'Python 2.7.6: /usr/bin/python (prefix: /usr)'
p114
sS'session'
p115
g57
(S's\xb6\x00\x00\x00<div><table><tr><td style="font-weight:bold;vertical-align:top;">keyword</td><td style="vertical-align:top;">:</td><td><div>&quot;image processing&quot;</div></td></tr></table></div>'
tRp116
sS'etype'
p117
S"<type 'exceptions.KeyError'>"
p118
sS'date'
p119
S'Mon Jun 27 20:47:46 2016'
p120
sS'response'
p121
g57
(S's=@\x00\x00<div><table><tr><td style="font-weight:bold;vertical-align:top;">body</td><td style="vertical-align:top;">:</td><td><div>&lt;cStringIO.StringO object at 0x7fc9198c0110&gt;</div></td></tr><tr><td style="font-weight:bold;vertical-align:top;">cookies</td><td style="vertical-align:top;">:</td><td><div><table><tr><td style="font-weight:bold;vertical-align:top;">session_id_webofsciencenew</td><td style="vertical-align:top;">:</td><td><div>127.0.0.1-3d077855-9344-4b88-a216-f85866df2cdb<table><tr><td style="font-weight:bold;vertical-align:top;">comment</td><td style="vertical-align:top;">:</td><td><div></div></td></tr><tr><td style="font-weight:bold;vertical-align:top;">domain</td><td style="vertical-align:top;">:</td><td><div></div></td></tr><tr><td style="font-weight:bold;vertical-align:top;">expires</td><td style="vertical-align:top;">:</td><td><div></div></td></tr><tr><td style="font-weight:bold;vertical-align:top;">httponly</td><td style="vertical-align:top;">:</td><td><div></div></td></tr><tr><td style="font-weight:bold;vertical-align:top;">max-age</td><td style="vertical-align:top;">:</td><td><div></div></td></tr><tr><td style="font-weight:bold;vertical-align:top;">path</td><td style="vertical-align:top;">:</td><td><div>/</div></td></tr><tr><td style="font-weight:bold;vertical-align:top;">secure</td><td style="vertical-align:top;">:</td><td><div></div></td></tr><tr><td style="font-weight:bold;vertical-align:top;">version</td><td style="vertical-align:top;">:</td><td><div></div></td></tr></table></div></td></tr></table></div></td></tr><tr><td style="font-weight:bold;vertical-align:top;">delimiters</td><td style="vertical-align:top;">:</td><td><div><table><tr><td><div>{{</div></td></tr><tr><td><div>}}</div></td></tr></table></div></td></tr><tr><td style="font-weight:bold;vertical-align:top;">files</td><td style="vertical-align:top;">:</td><td><div><table></table></div></td></tr><tr><td style="font-weight:bold;vertical-align:top;">flash</td><td style="vertical-align:top;">:</td><td><div></div></td></tr><tr><td style="font-weight:bold;vertical-align:top;">form_label_separator</td><td style="vertical-align:top;">:</td><td><div></div></td></tr><tr><td style="font-weight:bold;vertical-align:top;">formstyle</td><td style="vertical-align:top;">:</td><td><div>bootstrap3_inline</div></td></tr><tr><td style="font-weight:bold;vertical-align:top;">generic_patterns</td><td style="vertical-align:top;">:</td><td><div><table><tr><td><div>*</div></td></tr></table></div></td></tr><tr><td style="font-weight:bold;vertical-align:top;">google_analytics_id</td><td style="vertical-align:top;">:</td><td><div>None</div></td></tr><tr><td style="font-weight:bold;vertical-align:top;">headers</td><td style="vertical-align:top;">:</td><td><div><table><tr><td style="font-weight:bold;vertical-align:top;">X-Powered-By</td><td style="vertical-align:top;">:</td><td><div>web2py</div></td></tr></table></div></td></tr><tr><td style="font-weight:bold;vertical-align:top;">logo</td><td style="vertical-align:top;">:</td><td><div><a class="navbar-brand" href="http://www.web2py.com/" id="web2py-logo"><b>web<span>2</span>py</b>&trade;&nbsp;</a></div></td></tr><tr><td style="font-weight:bold;vertical-align:top;">menu</td><td style="vertical-align:top;">:</td><td><div><table><tr><td><div><table><tr><td><div>Anasayfa</div></td></tr><tr><td><div>False</div></td></tr><tr><td><div>/webofsciencenew/default/index</div></td></tr><tr><td><div><table></table></div></td></tr></table></div></td></tr><tr><td><div><table><tr><td><div>Sitelerim</div></td></tr><tr><td><div>False</div></td></tr><tr><td><div>/admin/default/site</div></td></tr></table></div></td></tr><tr><td><div><table><tr><td><div>Bu Uygulama</div></td></tr><tr><td><div>False</div></td></tr><tr><td><div>#</div></td></tr><tr><td><div><table><tr><td><div><table><tr><td><div>Design</div></td></tr><tr><td><div>False</div></td></tr><tr><td><div>/admin/default/design/webofsciencenew</div></td></tr></table></div></td></tr><tr><td><div><li class="divider"></li></div></td></tr><tr><td><div><table><tr><td><div>Denet\xc3\xa7i</div></td></tr><tr><td><div>False</div></td></tr><tr><td><div>/admin/default/edit/webofsciencenew/controllers/default.py</div></td></tr></table></div></td></tr><tr><td><div><table><tr><td><div>G\xc3\xb6r\xc3\xbcn\xc3\xbcm</div></td></tr><tr><td><div>False</div></td></tr><tr><td><div>/admin/default/edit/webofsciencenew/views/default/author.html</div></td></tr></table></div></td></tr><tr><td><div><table><tr><td><div>DB Modeli</div></td></tr><tr><td><div>False</div></td></tr><tr><td><div>/admin/default/edit/webofsciencenew/models/db.py</div></td></tr></table></div></td></tr><tr><td><div><table><tr><td><div>Model Men\xc3\xbc</div></td></tr><tr><td><div>False</div></td></tr><tr><td><div>/admin/default/edit/webofsciencenew/models/menu.py</div></td></tr></table></div></td></tr><tr><td><div><table><tr><td><div>Config.ini</div></td></tr><tr><td><div>False</div></td></tr><tr><td><div>/admin/default/edit/webofsciencenew/private/appconfig.ini</div></td></tr></table></div></td></tr><tr><td><div><table><tr><td><div>\xc5\x9eablon</div></td></tr><tr><td><div>False</div></td></tr><tr><td><div>/admin/default/edit/webofsciencenew/views/layout.html</div></td></tr></table></div></td></tr><tr><td><div><table><tr><td><div>Stil \xc5\x9eablonu</div></td></tr><tr><td><div>False</div></td></tr><tr><td><div>/admin/default/edit/webofsciencenew/static/css/web2py-bootstrap3.css</div></td></tr></table></div></td></tr><tr><td><div><table><tr><td><div>Veritaban\xc4\xb1</div></td></tr><tr><td><div>False</div></td></tr><tr><td><div>/webofsciencenew/appadmin/index</div></td></tr></table></div></td></tr><tr><td><div><table><tr><td><div>Hatalar</div></td></tr><tr><td><div>False</div></td></tr><tr><td><div>/admin/default/errors/webofsciencenew</div></td></tr></table></div></td></tr><tr><td><div><table><tr><td><div>Hakk\xc4\xb1nda</div></td></tr><tr><td><div>False</div></td></tr><tr><td><div>/admin/default/about/webofsciencenew</div></td></tr></table></div></td></tr></table></div></td></tr></table></div></td></tr><tr><td><div><table><tr><td><div>web2py.com</div></td></tr><tr><td><div>False</div></td></tr><tr><td><div>#</div></td></tr><tr><td><div><table><tr><td><div><table><tr><td><div>\xc4\xb0ndir</div></td></tr><tr><td><div>False</div></td></tr><tr><td><div>http://www.web2py.com/examples/default/download</div></td></tr></table></div></td></tr><tr><td><div><table><tr><td><div>Destek</div></td></tr><tr><td><div>False</div></td></tr><tr><td><div>http://www.web2py.com/examples/default/support</div></td></tr></table></div></td></tr><tr><td><div><table><tr><td><div>Tan\xc4\xb1t\xc4\xb1m</div></td></tr><tr><td><div>False</div></td></tr><tr><td><div>http://web2py.com/demo_admin</div></td></tr></table></div></td></tr><tr><td><div><table><tr><td><div>H\xc4\xb1zl\xc4\xb1 \xc3\x96rnekler</div></td></tr><tr><td><div>False</div></td></tr><tr><td><div>http://web2py.com/examples/default/examples</div></td></tr></table></div></td></tr><tr><td><div><table><tr><td><div>SSS</div></td></tr><tr><td><div>False</div></td></tr><tr><td><div>http://web2py.com/AlterEgo</div></td></tr></table></div></td></tr><tr><td><div><table><tr><td><div>Videolar</div></td></tr><tr><td><div>False</div></td></tr><tr><td><div>http://www.web2py.com/examples/default/videos/</div></td></tr></table></div></td></tr><tr><td><div><table><tr><td><div>\xc3\x9ccretsiz uygulamalar</div></td></tr><tr><td><div>False</div></td></tr><tr><td><div>http://web2py.com/appliances</div></td></tr></table></div></td></tr><tr><td><div><table><tr><td><div>Eklentiler</div></td></tr><tr><td><div>False</div></td></tr><tr><td><div>http://web2py.com/plugins</div></td></tr></table></div></td></tr><tr><td><div><table><tr><td><div>Tarifeler</div></td></tr><tr><td><div>False</div></td></tr><tr><td><div>http://web2pyslices.com/</div></td></tr></table></div></td></tr></table></div></td></tr></table></div></td></tr><tr><td><div><table><tr><td><div>Kitap</div></td></tr><tr><td><div>False</div></td></tr><tr><td><div>#</div></td></tr><tr><td><div><table><tr><td><div><table><tr><td><div>Online book</div></td></tr><tr><td><div>False</div></td></tr><tr><td><div>http://www.web2py.com/book</div></td></tr></table></div></td></tr><tr><td><div><li class="divider"></li></div></td></tr><tr><td><div><table><tr><td><div>\xc3\x96nz\xc3\xb6s</div></td></tr><tr><td><div>False</div></td></tr><tr><td><div>http://www.web2py.com/book/default/chapter/00</div></td></tr></table></div></td></tr><tr><td><div><table><tr><td><div>Giri\xc5\x9f</div></td></tr><tr><td><div>False</div></td></tr><tr><td><div>http://www.web2py.com/book/default/chapter/01</div></td></tr></table></div></td></tr><tr><td><div><table><tr><td><div>Python</div></td></tr><tr><td><div>False</div></td></tr><tr><td><div>http://www.web2py.com/book/default/chapter/02</div></td></tr></table></div></td></tr><tr><td><div><table><tr><td><div>G\xc3\xb6z gezdir</div></td></tr><tr><td><div>False</div></td></tr><tr><td><div>http://www.web2py.com/book/default/chapter/03</div></td></tr></table></div></td></tr><tr><td><div><table><tr><td><div>\xc3\x87ekirdek</div></td></tr><tr><td><div>False</div></td></tr><tr><td><div>http://www.web2py.com/book/default/chapter/04</div></td></tr></table></div></td></tr><tr><td><div><table><tr><td><div>G\xc3\xb6r\xc3\xbcn\xc3\xbcmler</div></td></tr><tr><td><div>False</div></td></tr><tr><td><div>http://www.web2py.com/book/default/chapter/05</div></td></tr></table></div></td></tr><tr><td><div><table><tr><td><div>Veritaban\xc4\xb1</div></td></tr><tr><td><div>False</div></td></tr><tr><td><div>http://www.web2py.com/book/default/chapter/06</div></td></tr></table></div></td></tr><tr><td><div><table><tr><td><div>Bi\xc3\xa7imler ve Do\xc4\x9frulay\xc4\xb1c\xc4\xb1lar</div></td></tr><tr><td><div>False</div></td></tr><tr><td><div>http://www.web2py.com/book/default/chapter/07</div></td></tr></table></div></td></tr><tr><td><div><table><tr><td><div>E-posta ve k\xc4\xb1sa mesaj (SMS)</div></td></tr><tr><td><div>False</div></td></tr><tr><td><div>http://www.web2py.com/book/default/chapter/08</div></td></tr></table></div></td></tr><tr><td><div><table><tr><td><div>Eri\xc5\x9fim Denetimi</div></td></tr><tr><td><div>False</div></td></tr><tr><td><div>http://www.web2py.com/book/default/chapter/09</div></td></tr></table></div></td></tr><tr><td><div><table><tr><td><div>Hizmetler</div></td></tr><tr><td><div>False</div></td></tr><tr><td><div>http://www.web2py.com/book/default/chapter/10</div></td></tr></table></div></td></tr><tr><td><div><table><tr><td><div>Ajax Tarifleri</div></td></tr><tr><td><div>False</div></td></tr><tr><td><div>http://www.web2py.com/book/default/chapter/11</div></td></tr></table></div></td></tr><tr><td><div><table><tr><td><div>Bile\xc5\x9fenler ve Eklentiler</div></td></tr><tr><td><div>False</div></td></tr><tr><td><div>http://www.web2py.com/book/default/chapter/12</div></td></tr></table></div></td></tr><tr><td><div><table><tr><td><div>Yay\xc4\xb1nlama tarifleri</div></td></tr><tr><td><div>False</div></td></tr><tr><td><div>http://www.web2py.com/book/default/chapter/13</div></td></tr></table></div></td></tr><tr><td><div><table><tr><td><div>Di\xc4\x9fer Tarifler</div></td></tr><tr><td><div>False</div></td></tr><tr><td><div>http://www.web2py.com/book/default/chapter/14</div></td></tr></table></div></td></tr><tr><td><div><table><tr><td><div>Helping web2py</div></td></tr><tr><td><div>False</div></td></tr><tr><td><div>http://www.web2py.com/book/default/chapter/15</div></td></tr></table></div></td></tr><tr><td><div><table><tr><td><div>Buy web2py\'s book</div></td></tr><tr><td><div>False</div></td></tr><tr><td><div>http://stores.lulu.com/web2py</div></td></tr></table></div></td></tr></table></div></td></tr></table></div></td></tr><tr><td><div><table><tr><td><div>Topluluk</div></td></tr><tr><td><div>False</div></td></tr><tr><td><div>None</div></td></tr><tr><td><div><table><tr><td><div><table><tr><td><div>Gruplar</div></td></tr><tr><td><div>False</div></td></tr><tr><td><div>http://www.web2py.com/examples/default/usergroups</div></td></tr></table></div></td></tr><tr><td><div><table><tr><td><div>Twitter</div></td></tr><tr><td><div>False</div></td></tr><tr><td><div>http://twitter.com/web2py</div></td></tr></table></div></td></tr><tr><td><div><table><tr><td><div>Canl\xc4\xb1 Sohbet</div></td></tr><tr><td><div>False</div></td></tr><tr><td><div>http://webchat.freenode.net/?channels=web2py</div></td></tr></table></div></td></tr></table></div></td></tr></table></div></td></tr></table></div></td></tr><tr><td style="font-weight:bold;vertical-align:top;">meta</td><td style="vertical-align:top;">:</td><td><div><table><tr><td style="font-weight:bold;vertical-align:top;">author</td><td style="vertical-align:top;">:</td><td><div>Your Name &lt;you@example.com&gt;</div></td></tr><tr><td style="font-weight:bold;vertical-align:top;">description</td><td style="vertical-align:top;">:</td><td><div>a cool new app</div></td></tr><tr><td style="font-weight:bold;vertical-align:top;">generator</td><td style="vertical-align:top;">:</td><td><div>Web2py Web Framework</div></td></tr><tr><td style="font-weight:bold;vertical-align:top;">keywords</td><td style="vertical-align:top;">:</td><td><div><table><tr><td><div>web2py</div></td></tr><tr><td><div>python</div></td></tr><tr><td><div>framework</div></td></tr></table></div></td></tr></table></div></td></tr><tr><td style="font-weight:bold;vertical-align:top;">models_to_run</td><td style="vertical-align:top;">:</td><td><div><table><tr><td><div>^\\w+\\.py$</div></td></tr><tr><td><div>^default/\\w+\\.py$</div></td></tr><tr><td><div>^default/author/\\w+\\.py$</div></td></tr></table></div></td></tr><tr><td style="font-weight:bold;vertical-align:top;">postprocessing</td><td style="vertical-align:top;">:</td><td><div><table></table></div></td></tr><tr><td style="font-weight:bold;vertical-align:top;">session_client</td><td style="vertical-align:top;">:</td><td><div>127.0.0.1</div></td></tr><tr><td style="font-weight:bold;vertical-align:top;">session_cookie_compression_level</td><td style="vertical-align:top;">:</td><td><div>None</div></td></tr><tr><td style="font-weight:bold;vertical-align:top;">session_cookie_expires</td><td style="vertical-align:top;">:</td><td><div>None</div></td></tr><tr><td style="font-weight:bold;vertical-align:top;">session_data_name</td><td style="vertical-align:top;">:</td><td><div>session_data_webofsciencenew</div></td></tr><tr><td style="font-weight:bold;vertical-align:top;">session_file</td><td style="vertical-align:top;">:</td><td><div>&lt;open file &#x27;/home/damla/web2py/applications/webofsciencenew/sessions/08f/1be/127.0.0.1-3d077855-9344-4b88-a216-f85866df2cdb&#x27;, mode &#x27;rb+&#x27; at 0x7fc91a5f0300&gt;</div></td></tr><tr><td style="font-weight:bold;vertical-align:top;">session_filename</td><td style="vertical-align:top;">:</td><td><div>/home/damla/web2py/applications/webofsciencenew/sessions/127.0.0.1-3d077855-9344-4b88-a216-f85866df2cdb</div></td></tr><tr><td style="font-weight:bold;vertical-align:top;">session_hash</td><td style="vertical-align:top;">:</td><td><div>52b15c315da829ca1356f20becdc989c</div></td></tr><tr><td style="font-weight:bold;vertical-align:top;">session_id</td><td style="vertical-align:top;">:</td><td><div>127.0.0.1-3d077855-9344-4b88-a216-f85866df2cdb</div></td></tr><tr><td style="font-weight:bold;vertical-align:top;">session_id_name</td><td style="vertical-align:top;">:</td><td><div>session_id_webofsciencenew</div></td></tr><tr><td style="font-weight:bold;vertical-align:top;">session_locked</td><td style="vertical-align:top;">:</td><td><div>True</div></td></tr><tr><td style="font-weight:bold;vertical-align:top;">session_masterapp</td><td style="vertical-align:top;">:</td><td><div>webofsciencenew</div></td></tr><tr><td style="font-weight:bold;vertical-align:top;">session_new</td><td style="vertical-align:top;">:</td><td><div>False</div></td></tr><tr><td style="font-weight:bold;vertical-align:top;">session_storage_type</td><td style="vertical-align:top;">:</td><td><div>file</div></td></tr><tr><td style="font-weight:bold;vertical-align:top;">status</td><td style="vertical-align:top;">:</td><td><div>200</div></td></tr><tr><td style="font-weight:bold;vertical-align:top;">subtitle</td><td style="vertical-align:top;">:</td><td><div></div></td></tr><tr><td style="font-weight:bold;vertical-align:top;">title</td><td style="vertical-align:top;">:</td><td><div>Webofsciencenew</div></td></tr><tr><td style="font-weight:bold;vertical-align:top;">view</td><td style="vertical-align:top;">:</td><td><div>default/author.html</div></td></tr></table></div>'
tRp122
sS'locals'
p123
(dp124
S'Service'
p125
S"<class 'gluon.tools.Service'>"
p126
sS'OBJECT'
p127
S"<class 'gluon.html.OBJECT'>"
p128
sS'SQLDB'
p129
S"<class 'pydal.base.DAL'>"
p130
sg115
S'<Storage {\'keyword\': \'"image processing"\'}>'
p131
sS'LINK'
p132
S"<class 'gluon.html.LINK'>"
p133
sS'BR'
p134
S"<class 'gluon.html.BR'>"
p135
sS'local_import'
p136
S'<function <lambda>>'
p137
sS'OPTGROUP'
p138
S"<class 'gluon.html.OPTGROUP'>"
p139
sS'__package__'
p140
S'None'
p141
sS'PRE'
p142
S"<class 'gluon.html.PRE'>"
p143
sS'IS_INT_IN_RANGE'
p144
S"<class 'gluon.validators.IS_INT_IN_RANGE'>"
p145
sS'IS_LOWER'
p146
S"<class 'gluon.validators.IS_LOWER'>"
p147
sS'IS_STRONG'
p148
S"<class 'gluon.validators.IS_STRONG'>"
p149
sS'cache'
p150
S'<gluon.cache.Cache object>'
p151
sS'IS_IN_DB'
p152
S"<class 'gluon.validators.IS_IN_DB'>"
p153
sS'TAG'
p154
S'<gluon.html.__TAG__ object>'
p155
sS'SQLField'
p156
S"<class 'pydal.objects.Field'>"
p157
sS'mail'
p158
S'<gluon.tools.Mail object>'
p159
sS'BODY'
p160
S"<class 'gluon.html.BODY'>"
p161
sS'IS_DATE_IN_RANGE'
p162
S"<class 'gluon.validators.IS_DATE_IN_RANGE'>"
p163
sS'IFRAME'
p164
S"<class 'gluon.html.IFRAME'>"
p165
sS'articles'
p166
S'[{\'_version_\': 1537856508948119556, \'abstract\': [\'A new multi-level thresholding method is propose... both objective scores and subjective evaluation.\'], \'address\': [\'[ 1 ] Tubitak Marmara Res Ctr, Informat Technol Res Inst, Gebze, Kocaeli, \'], \'authors\': [\'Sezgin, M\', \'Sankur, B\'], \'id\': \'e1fcf8fa-8ee5-4edb-8ac8-2977d10a729f\', \'journal\': [\'2003 INTERNATIONAL CONFERENCE ON IMAGE PROCESSING, VOL 2, PROCEEDINGS\'], \'keywordsplus\': [\'ENTROPY\'], \'published\': [\'2003\'], \'researchareas\': [\'Computer Science; Imaging Science & Photographic Technology\'], \'title\': [\'Image multi-thresholding based on sample moment function\'], ...}, {\'_version_\': 1537856509092823041, \'abstract\': [\'We present a novel technique for steganalysis of...presence of a steganographic message in an image.\'], \'address\': [\'[ 1 ] Uludag Univ, Dept Elect Engn, Bursa, \'], \'authors\': [\'Avcibas, I\', \'Memon, N\', \'Sankur, B\'], \'id\': \'2462a2a0-004a-44ec-8cef-b984427255b5\', \'journal\': [\'2002 INTERNATIONAL CONFERENCE ON IMAGE PROCESSING, VOL III, PROCEEDINGS\'], \'published\': [\'2002\'], \'researchareas\': [\'Computer Science\\n\'], \'title\': [\'Image steganalysis with binary similarity measures\'], \'webofsciencecategories\': [\'Computer Science, Artificial Intelligence; Compu...n Systems; Computer Science, Software Engineering\']}, {\'_version_\': 1537856509144203265, \'abstract\': [\'In an effort to present quantitative evaluation ...ed and a mixture thresholding scheme is proposed.\'], \'address\': [\'[ 1 ] Tech Univ Istanbul, Istanbul, \'], \'authors\': [\'Sezgin, M\', \'Sankur, B\'], \'id\': \'99d82294-74e0-4993-b1ee-c884665cf3eb\', \'journal\': [\'2001 INTERNATIONAL CONFERENCE ON IMAGE PROCESSING, VOL III, PROCEEDINGS\'], \'keywordsplus\': [\'ENTROPY\', \'IMAGES\'], \'published\': [\'2001\'], \'researchareas\': [\'Computer Science; Engineering\'], \'title\': [\'Selection of thresholding methods for non-desctructive testing applications\'], ...}, {\'_version_\': 1537856509338189827, \'abstract\': [\'An object-oriented codec for video transmission ...the codec on various test sequences are included.\'], \'authors\': [\'Yemez, Y\', \'Sankur, B\', \'Anarim, E\'], \'id\': \'10f78a6f-7cb1-42e6-9351-1f7a7a5bf333\', \'journal\': [\'INTERNATIONAL CONFERENCE ON IMAGE PROCESSING - PROCEEDINGS, VOL III\'], \'published\': [\'1997\'], \'researchareas\': [\'Computer Science; Engineering; Optics\'], \'title\': [\'An object-oriented video codec based on region growing motion segmentation\'], \'webofsciencecategories\': [\'Computer Science, Information Systems; Computer ...ods; Engineering, Electrical & Electronic; Optics\']}, {\'DOI\': [\'10.1109/TIFS.2008.926993\'], \'_version_\': 1537856507811463170, \'abstract\': [\'The various image-processing stages in a digital... discriminate camera units within the same model.\'], \'address\': [\'[ 1 ] Bogazici Univ, Elect Elect Engn Dept, TR-34342 Istanbul, \', \'[ 2 ] Baskent Univ, Elect Elect Engn Dept, TR-06530 Ankara, \'], \'addressnumbers\': [\'[\', \'1\', \']\', \'[\', \'1\', \']\', \'[\', \'2\', \']\'], \'authors\': [\'Celiktutan, O\', \'Sankur, B\', \'Avcibas, I\'], \'id\': \'0d452685-5d5a-4b5f-883f-0529f82998eb\', \'journal\': [\'IEEE TRANSACTIONS ON INFORMATION FORENSICS AND SECURITY\'], \'keywords\': [\'binary similarity measures (BSM)\', \'feature selection\', \'image forensics\', \'interpolation (demosaicing) algorithm\'], \'keywordsplus\': [\'CLASSIFICATION\'], ...}, {\'DOI\': [\'10.1109/TIP.2006.873439\'], \'_version_\': 1537856508407054339, \'abstract\': [\'The problem of person recognition and verificati...gnition is a viable secure access control scheme.\'], \'address\': [\'[ 1 ] Bogazici Univ, BUSIM Lab, TR-34342 Istanbul, \', \'[ 2 ] EPITA Res & Dev Lab, Paris, France\', \'[ 3 ] Ecole Natl Super Telecommun Bretagne, Paris, France\'], \'authors\': [\'Yoruk, E\', \'Konukoglu, E\', \'Sankur, B\', \'Darbon, J\'], \'id\': \'cafb53cd-bb8f-45bc-896b-eca420ea455c\', \'journal\': [\'IEEE TRANSACTIONS ON IMAGE PROCESSING\'], \'keywords\': [\'independent component analysis\', \'modified Hansdorff distance\', \'pose registration\'], \'keywordsplus\': [\'IDENTIFICATION\', \'FEATURES\'], \'published\': [\'JUL 2006\'], ...}, {\'_version_\': 1537856508595798017, \'abstract\': [\'We propose and compare three different automatic... eliminating the background and the false alarms.\'], \'address\': [\'[ 1 ] Bogazici Univ, Dept Elect & Elect Engn, TR-80815 Bebek, \'], \'authors\': [\'Akakin, HC\', \'Salah, AA\', \'Akarun, L\', \'Sankur, B\'], \'id\': \'5009ba21-e38b-4fe5-8d59-cb25873b76ec\', \'journal\': [\'Image Processing: Algorithms and Systems, Neural Networks, and Machine Learning\'], \'keywordsplus\': [\'FACE RECOGNITION\', \'AUTOMATIC EXTRACTION\'], \'published\': [\'2006\'], \'researchareas\': [\'Computer Science; Imaging Science & Photographic Technology\'], \'title\': [\'2D/3D facial feature extraction - art. no. 60641D\'], ...}, {\'DOI\': [\'10.1109/TIP.2004.828427\'], \'_version_\': 1537856508795027458, \'abstract\': [\'We propose measures to evaluate quantitatively t...equences using different segmentation approaches.\'], \'address\': [\'[ 1 ] Momentum Digital Media Technol Inc, TR-80815 Bebek, \', \'[ 2 ] Bogazici Univ, Dept Elect & Elect Engn, TR-80815 Istanbul, \', \'[ 3 ] Bogazici Univ, Dept Elect & Elect Engn, TR-80815 Bebek, \', \'[ 4 ] Univ Rochester, Dept Elect & Comp Engn, Rochester, NY 14627 USA\', \'[ 5 ] Koc Univ, Coll Engn, TR-80815 Bebek, \'], \'authors\': [\'Erdem, CE\', \'Sankur, B\', \'Tekalp, AM\'], \'id\': \'9957928a-5f95-4e54-abfa-0e57dbc4af45\', \'journal\': [\'IEEE TRANSACTIONS ON IMAGE PROCESSING\'], \'keywords\': [\'canonical correlation analysis\', \'object segmentation\', \'object tracking\', \'performance evaluation without ground truth (GT)\'], \'keywordsplus\': [\'IMAGE SEGMENTATION\'], \'published\': [\'JUL 2004\'], ...}, {\'_version_\': 1537856508852699141, \'abstract\': [\'In this paper we present a framework for digital...articular or a combination of processing methods.\'], \'address\': [\'[ 1 ] Uludag Univ, Dept Elect Engn, Bursa, \'], \'authors\': [\'Avcibas, I\', \'Bayram, S\', \'Memon, N\', \'Ramkumar, M\', \'Sankur, B\'], \'id\': \'0c46f95d-62a1-4484-a308-add54542d5dd\', \'journal\': [\'ICIP: 2004 INTERNATIONAL CONFERENCE ON IMAGE PROCESSING, VOLS 1- 5\'], \'published\': [\'2004\'], \'researchareas\': [\'Computer Science; Imaging Science & Photographic Technology\'], \'title\': [\'A classifier design for detecting image manipulations\'], \'webofsciencecategories\': [\'Computer Science, Software Engineering; Imaging Science & Photographic Technology\']}, {\'DOI\': [\'10.1109/TIP.2002.807363\'], \'_version_\': 1537856508941828098, \'abstract\': [\'We present techniques for steganalysis of images...cy to distinguish between cover and stego images.\'], \'address\': [\'[ 1 ] Uludag Univ, Dept Elect Engn, TR-16059 Bursa, \', \'[ 2 ] Polytech Univ, Dept Comp & Informat Sci, Brooklyn, NY 11201 USA\', \'[ 3 ] Bogazici Univ, Dept Elect & Elect Engn, Istanbul, \'], \'authors\': [\'Avcibas, I\', \'Memon, N\', \'Sankur, B\'], \'id\': \'40f256bd-5716-4508-86e4-38b6beccc763\', \'journal\': [\'IEEE TRANSACTIONS ON IMAGE PROCESSING\'], \'keywords\': [\'analysis of variance\', \'image quality measures\', \'multivariate regression analysis\', \'steganalysis\', \'steganography\', \'watermarking\'], \'keywordsplus\': [\'PERFORMANCE\'], \'published\': [\'FEB 2003\'], ...}, {\'_version_\': 1537856509144203268, \'abstract\': [\'We present metrics to evaluate the performance o...ion of the good and bad segments of the boundary.\'], \'address\': [\'[ 1 ] Bogazici Univ, Dept Elect & Elect Engn, TR-80815 Istanbul, \'], \'authors\': [\'Erdem, CE\', \'Tekalp, AM\', \'Sankur, B\'], \'id\': \'91933374-173f-459c-9bd1-20efec25bee5\', \'journal\': [\'2001 INTERNATIONAL CONFERENCE ON IMAGE PROCESSING, VOL II, PROCEEDINGS\'], \'published\': [\'2001\'], \'researchareas\': [\'Computer Science; Engineering\'], \'title\': [\'Metrics for performance evaluation of video object segmentation and tracking without ground-truth\'], \'webofsciencecategories\': [\'Computer Science, Software Engineering; Computer...y & Methods; Engineering, Electrical & Electronic\']}, {\'DOI\': [\'10.1109/83.650855\'], \'_version_\': 1537856509294149634, \'abstract\': [\'Two new design techniques for adaptive orthogona...in the peak signal-to-noise ratio (PSNR) figures.\'], \'address\': [\'[ 1 ] Bogazici Univ, Dept Elect & Elect Engn, TR-80815 Bebek, \'], \'authors\': [\'Caglar, H\', \'Gunturk, S\', \'Sankur, B\', \'Anarim, E\'], \'id\': \'a368a391-86d3-4f83-a750-63111c3f4591\', \'journal\': [\'IEEE TRANSACTIONS ON IMAGE PROCESSING\'], \'keywords\': [\'coding gain\', \'orthogonal block transform\', \'permutation\', \'reference vector\', \'vector quantization\'], \'keywordsplus\': [\'DESIGN\'], \'published\': [\'JAN 1998\'], ...}, {\'DOI\': [\'10.1109/83.535850\'], \'_version_\': 1537856509351821312, \'abstract\': [\'In this correspondence, the problem of direction...ugh simple combinations of directional edge maps.\'], \'authors\': [\'Aydin, T\', \'Yemez, Y\', \'Anarim, E\', \'Sankur, B\'], \'id\': \'f1fab880-391a-4c51-8e17-bfd68223f57f\', \'journal\': [\'IEEE TRANSACTIONS ON IMAGE PROCESSING\'], \'published\': [\'SEP 1996\'], \'researchareas\': [\'Computer Science; Engineering\'], \'title\': [\'Multidirectional and multiscale edge detection via M-band wavelet transform\'], \'webofsciencecategories\': [\'Computer Science, Artificial Intelligence; Engineering, Electrical & Electronic\']}, {\'DOI\': [\'10.1109/TIP.2010.2048613\'], \'_version_\': 1537856507087945731, \'abstract\': [\'We propose to model the image differentials of a...a defined in the pixel and the frequency domains.\'], \'address\': [\'[ 1 ] Italian Natl Res Council CNR, Inst Informat Sci & Technol ISTI, I-56124 Pisa, Italy\', \'[ 2 ] Univ Cantabria, Inst Phys Cantbabria IFCA, E-39005 Santander, Spain\', \'[ 3 ] Bogazici Univ, Dept Elect & Elect Engn, TR-34342 Istanbul, \'], \'addressnumbers\': [\'[\', \'1\', \']\', \'[\', \'1\', \']\', \'[\', \'2\', \']\', \'[\', \'3\', \']\', \'[\', \'1\', \']\', \'[\', \'2\', \']\'], \'authors\': [\'Kayabol, K\', \'Kuruoglu, EE\', \'Sanz, JL\', \'Sankur, B\', \'Salerno, E\', \'Herranz, D\'], \'id\': \'5874316e-ed36-4f75-a09d-76df88268eee\', \'journal\': [\'IEEE TRANSACTIONS ON IMAGE PROCESSING\'], \'keywords\': [\'Astrophysical images\', \'Bayesian source separation\', \'Langevin stochastic equation\', \'Markov Chain Monte Carlo (MCMC)\', \'Metropolis-Hastings\', \'multichannel denoising\', "student\'s t-distribution"], \'keywordsplus\': [\'IMAGE-RESTORATION\', \'EM ALGORITHM\', \'PRIORS\'], ...}, {\'DOI\': [\'10.1109/TIP.2009.2012905\'], \'_version_\': 1537856507462287361, \'abstract\': [\'We investigate the source separation problem of ...pproximate Bayesian and non-Bayesian competitors.\'], \'address\': [\'[ 1 ] Istanbul Univ, Dept Elect & Elect Engn, Istanbul, \', \'[ 2 ] CNR, ISTI, I-56124 Pisa, Italy\', \'[ 3 ] Bogazici Univ, Dept Elect & Elect Engn, TR-34342 Istanbul, \'], \'addressnumbers\': [\'[\', \'1\', \']\', \'[\', \'2\', \']\', \'[\', \'3\', \']\'], \'authors\': [\'Kayabol, K\', \'Kuruoglu, EE\', \'Sankur, B\'], \'id\': \'e3248ec5-10d3-4454-b2c4-2f213fbb03e8\', \'journal\': [\'IEEE TRANSACTIONS ON IMAGE PROCESSING\'], \'keywords\': [\'Astrophysical images\', \'Bayesian source separation\', \'Gibbs sampling with embedded Metropolis\', \'Markov chain Monte Carlo (MCMC)\', \'MRFs\'], \'keywordsplus\': [\'INDEPENDENT COMPONENT ANALYSIS\', \'SUPERRESOLUTION IMAGE\', \'BLIND SEPARATION\', \'REGULARIZATION\', \'RESTORATION\', \'ALGORITHM\', \'NOISY\'], ...}]'
p167
sS'URL'
p168
S'<function URL>'
p169
sS'__file__'
p170
S"'/home/damla/web2py/applications/webofsciencenew/views/default/author.html'"
p171
sS'db'
p172
S'<DAL uri="sqlite://storage.sqlite">'
p173
sS'auth'
p174
S'<gluon.tools.Auth object>'
p175
sS'P'
S"<class 'gluon.html.P'>"
p176
sS'TFOOT'
p177
S"<class 'gluon.html.TFOOT'>"
p178
sS'XHTML'
p179
S"<class 'gluon.html.XHTML'>"
p180
sS'ON'
p181
S'True'
p182
sS'OL'
p183
S"<class 'gluon.html.OL'>"
p184
sS'IS_JSON'
p185
S"<class 'gluon.validators.IS_JSON'>"
p186
sS'TEXTAREA'
p187
S"<class 'gluon.html.TEXTAREA'>"
p188
sS'MENU'
p189
S"<class 'gluon.html.MENU'>"
p190
sS'IS_IMAGE'
p191
S"<class 'gluon.validators.IS_IMAGE'>"
p192
sS'EM'
p193
S"<class 'gluon.html.EM'>"
p194
sS'CODE'
p195
S"<class 'gluon.html.CODE'>"
p196
sS'HTTP'
p197
S"<class 'gluon.http.HTTP'>"
p198
sS'HR'
p199
S"<class 'gluon.html.HR'>"
p200
sS'IS_DATETIME'
p201
S"<class 'gluon.validators.IS_DATETIME'>"
p202
sS'STYLE'
p203
S"<class 'gluon.html.STYLE'>"
p204
sS'LABEL'
p205
S"<class 'gluon.html.LABEL'>"
p206
sS'CLEANUP'
p207
S"<class 'gluon.validators.CLEANUP'>"
p208
sS'plugins'
p209
S'<gluon.tools.PluginManager object>'
p210
sS'SELECT'
p211
S"<class 'gluon.html.SELECT'>"
p212
sS'index'
p213
S'1'
sS'CENTER'
p214
S"<class 'gluon.html.CENTER'>"
p215
sS'Auth'
p216
S"<class 'gluon.tools.Auth'>"
p217
sS'DEVELOPMENT_MENU'
p218
g182
sS'__builtins__'
p219
S"{'ArithmeticError': <type 'exceptions.ArithmeticError'>, 'AssertionError': <type 'exceptions.AssertionError'>, 'AttributeError': <type 'exceptions.AttributeError'>, 'BaseException': <type 'exceptions.BaseException'>, 'BufferError': <type 'exceptions.BufferError'>, 'BytesWarning': <type 'exceptions.BytesWarning'>, 'DeprecationWarning': <type 'exceptions.DeprecationWarning'>, 'EOFError': <type 'exceptions.EOFError'>, 'Ellipsis': Ellipsis, 'EnvironmentError': <type 'exceptions.EnvironmentError'>, ...}"
p220
sS'HTML'
p221
S"<class 'gluon.html.HTML'>"
p222
sS'SQLFORM'
p223
S"<class 'gluon.sqlhtml.SQLFORM'>"
p224
sS'articlesList'
p225
S"[{'title': 'Image multi-thresholding based on sample moment function'}, {'title': 'Image steganalysis with binary similarity measures'}, {'title': 'Selection of thresholding methods for non-desctructive testing applications'}, {'title': 'An object-oriented video codec based on region growing motion segmentation'}, {'title': 'Blind identification of source cell-phone model'}, {'title': 'Shape-based hand recognition'}, {'title': '2D/3D facial feature extraction - art. no. 60641D'}, {'title': 'Performance measures for video object segmentation and tracking'}, {'title': 'A classifier design for detecting image manipulations'}, {'title': 'Steganalysis using image quality metrics'}, {'title': 'Metrics for performance evaluation of video object segmentation and tracking without ground-truth'}, {'title': 'VQ-adaptive block transform coding of images'}, {'title': 'Multidirectional and multiscale edge detection via M-band wavelet transform'}, {'title': 'Adaptive Langevin Sampler for Separation of t-Distribution Modelled Astrophysical Maps'}, {'title': 'Bayesian Separation of Images Modeled With MRFs Using MCMC'}]"
p226
sS'LOAD'
p227
S'<function LOAD>'
p228
sS'redirect'
p229
S'<function redirect>'
p230
sS'FIELDSET'
p231
S"<class 'gluon.html.FIELDSET'>"
p232
sS'IS_EQUAL_TO'
p233
S"<class 'gluon.validators.IS_EQUAL_TO'>"
p234
sS'embed64'
p235
S'<function embed64>'
p236
sS'IS_LIST_OF'
p237
S"<class 'gluon.validators.IS_LIST_OF'>"
p238
sS'INPUT'
p239
S"<class 'gluon.html.INPUT'>"
p240
sS'EMBED'
p241
S"<class 'gluon.html.EMBED'>"
p242
sS'_'
S'<function _>'
p243
sS'myconf'
p244
S"{'forms': {'formstyle': 'bootstrap3_inline', 'se...': {'names': 'localhost:*, 127.0.0.1:*, *:*, *'}}"
p245
sS'H2'
p246
S"<class 'gluon.html.H2'>"
p247
sS'H3'
p248
S"<class 'gluon.html.H3'>"
p249
sS'AppConfig'
p250
S'<function AppConfig>'
p251
sS'H1'
p252
S"<class 'gluon.html.H1'>"
p253
sS'H6'
p254
S"<class 'gluon.html.H6'>"
p255
sS'H4'
p256
S"<class 'gluon.html.H4'>"
p257
sS'H5'
p258
S"<class 'gluon.html.H5'>"
p259
sS'UL'
p260
S"<class 'gluon.html.UL'>"
p261
sS'length'
p262
S'1'
sS'IS_UPPER'
p263
S"<class 'gluon.validators.IS_UPPER'>"
p264
sS'xmlescape'
p265
S'<function xmlescape>'
p266
sS'IS_TIME'
p267
S"<class 'gluon.validators.IS_TIME'>"
p268
sS'OPTION'
p269
S"<class 'gluon.html.OPTION'>"
p270
sS'TITLE'
p271
S"<class 'gluon.html.TITLE'>"
p272
sS'CRYPT'
p273
S"<class 'gluon.validators.CRYPT'>"
p274
sS'IS_EMPTY_OR'
p275
S"<class 'gluon.validators.IS_EMPTY_OR'>"
p276
sS'MARKMIN'
p277
S"<class 'gluon.html.MARKMIN'>"
p278
sS'authorname'
p279
S'\'"Sankur, B"\''
p280
sS'article'
p281
S"{'_version_': 1537856508948119556, 'abstract': ['A new multi-level thresholding method is propose... both objective scores and subjective evaluation.'], 'address': ['[ 1 ] Tubitak Marmara Res Ctr, Informat Technol Res Inst, Gebze, Kocaeli, '], 'authors': ['Sezgin, M', 'Sankur, B'], 'id': 'e1fcf8fa-8ee5-4edb-8ac8-2977d10a729f', 'journal': ['2003 INTERNATIONAL CONFERENCE ON IMAGE PROCESSING, VOL 2, PROCEEDINGS'], 'keywordsplus': ['ENTROPY'], 'published': ['2003'], 'researchareas': ['Computer Science; Imaging Science & Photographic Technology'], 'title': ['Image multi-thresholding based on sample moment function'], ...}"
p282
sS'STRONG'
p283
S"<class 'gluon.html.STRONG'>"
p284
sS'COL'
p285
S"<class 'gluon.html.COL'>"
p286
sS'service'
p287
S'<gluon.tools.Service object>'
p288
sS'SCRIPT'
p289
S"<class 'gluon.html.SCRIPT'>"
p290
sS'TABLE'
p291
S"<class 'gluon.html.TABLE'>"
p292
sS'IS_IPV4'
p293
S"<class 'gluon.validators.IS_IPV4'>"
p294
sS'IS_LENGTH'
p295
S"<class 'gluon.validators.IS_LENGTH'>"
p296
sS'IS_IPV6'
p297
S"<class 'gluon.validators.IS_IPV6'>"
p298
sS'XML'
p299
S"<class 'gluon.html.XML'>"
p300
sS'B'
S"<class 'gluon.html.B'>"
p301
sS'IMG'
p302
S"<class 'gluon.html.IMG'>"
p303
sS'SQLTABLE'
p304
S"<class 'gluon.sqlhtml.SQLTABLE'>"
p305
sS'IS_MATCH'
p306
S"<class 'gluon.validators.IS_MATCH'>"
p307
sS'IS_ALPHANUMERIC'
p308
S"<class 'gluon.validators.IS_ALPHANUMERIC'>"
p309
sS'urlname'
p310
S"'q=%22image+processing%22&fq=authors%3A%22Sankur%2C+B%22'"
p311
sS'SPAN'
p312
S"<class 'gluon.html.SPAN'>"
p313
sS'keyword'
p314
S'\'"image processing"\''
p315
sS'IS_IPADDRESS'
p316
S"<class 'gluon.validators.IS_IPADDRESS'>"
p317
sS'IS_SLUG'
p318
S"<class 'gluon.validators.IS_SLUG'>"
p319
sS'BEAUTIFY'
p320
S"<class 'gluon.html.BEAUTIFY'>"
p321
sS'META'
p322
S"<class 'gluon.html.META'>"
p323
sS'BUTTON'
p324
S"<class 'gluon.html.BUTTON'>"
p325
sS'IS_DATE'
p326
S"<class 'gluon.validators.IS_DATE'>"
p327
sS'IS_EMAIL'
p328
S"<class 'gluon.validators.IS_EMAIL'>"
p329
sS'IS_NOT_EMPTY'
p330
S"<class 'gluon.validators.IS_NOT_EMPTY'>"
p331
sS'IS_FLOAT_IN_RANGE'
p332
S"<class 'gluon.validators.IS_FLOAT_IN_RANGE'>"
p333
sS'TBODY'
p334
S"<class 'gluon.html.TBODY'>"
p335
sS'CAT'
p336
S"<class 'gluon.html.CAT'>"
p337
sS'Field'
p338
S"<class 'pydal.objects.Field'>"
p339
sS'IS_LIST_OF_EMAILS'
p340
S"<class 'gluon.validators.IS_LIST_OF_EMAILS'>"
p341
sS'DIV'
p342
S"<class 'gluon.html.DIV'>"
p343
sS'LEGEND'
p344
S"<class 'gluon.html.LEGEND'>"
p345
sS'COLGROUP'
p346
S"<class 'gluon.html.COLGROUP'>"
p347
sS'DAL'
p348
S"<class 'pydal.base.DAL'>"
p349
sS'ASSIGNJS'
p350
S'<function ASSIGNJS>'
p351
sS'TR'
p352
S"<class 'gluon.html.TR'>"
p353
sS'LI'
p354
S"<class 'gluon.html.LI'>"
p355
sS'matches'
p356
S'15'
p357
sS'TH'
p358
S"<class 'gluon.html.TH'>"
p359
sS'TD'
p360
S"<class 'gluon.html.TD'>"
p361
sS'PluginManager'
p362
S"<class 'gluon.tools.PluginManager'>"
p363
sS'IS_URL'
p364
S"<class 'gluon.validators.IS_URL'>"
p365
sS'A'
S"<class 'gluon.html.A'>"
p366
sS'HEAD'
p367
S"<class 'gluon.html.HEAD'>"
p368
sS'IS_DATETIME_IN_RANGE'
p369
S"<class 'gluon.validators.IS_DATETIME_IN_RANGE'>"
p370
sS'FORM'
p371
S"<class 'gluon.html.FORM'>"
p372
sS'I'
S"<class 'gluon.html.I'>"
p373
sS'athname'
p374
S'None'
p375
sS'IS_NOT_IN_DB'
p376
S"<class 'gluon.validators.IS_NOT_IN_DB'>"
p377
sg121
S"<Storage {'body': <cStringIO.StringO object at 0... 0x7fc93c77e0c8>, 'view': 'default/author.html'}>"
p378
sS'THEAD'
p379
S"<class 'gluon.html.THEAD'>"
p380
sS'ANY_OF'
p381
S"<class 'gluon.validators.ANY_OF'>"
p382
sS'IS_NULL_OR'
p383
S"<class 'gluon.validators.IS_EMPTY_OR'>"
p384
sS'__name__'
p385
S"'__restricted__'"
p386
sS'author'
p387
S"'Avcibas, I'"
p388
sg56
S"<Storage {'_vars': None, 'function': 'author', '...ome/damla/web2py/applications/webofsciencenew/'}>"
p389
sS'IS_EXPR'
p390
S"<class 'gluon.validators.IS_EXPR'>"
p391
sS'T'
S'<gluon.languages.translator object>'
p392
sS'IS_IN_SET'
p393
S"<class 'gluon.validators.IS_IN_SET'>"
p394
sS'IS_UPLOAD_FILENAME'
p395
S"<class 'gluon.validators.IS_UPLOAD_FILENAME'>"
p396
sS'TT'
p397
S"<class 'gluon.html.TT'>"
p398
sS'IS_DECIMAL_IN_RANGE'
p399
S"<class 'gluon.validators.IS_DECIMAL_IN_RANGE'>"
p400
sssS'traceback'
p401
S'Traceback (most recent call last):\n  File "/home/damla/web2py/gluon/restricted.py", line 227, in restricted\n    exec ccode in environment\n  File "/home/damla/web2py/applications/webofsciencenew/views/default/author.html", line 56, in <module>\n    {{pass}}\nKeyError: \'keywords\'\n'
p402
s.