(dp1
S'output'
p2
S"<type 'exceptions.NameError'> name 'freq' is not defined"
p3
sS'layer'
p4
S'/home/damla/web2py/applications/webofsciencenew/views/default/author.html'
p5
sS'code'
p6
S'response.write(\'<!DOCTYPE html>\\n<html lang="en">\\n\\t<head>\\n\\t\\t<meta http-equiv="content-type" content="text/html; charset=UTF-8">\\n\\t\\t<meta charset="utf-8">\\n\\t\\t<title>Web Of Science</title>\\n\\t\\t<meta name="generator" content="Bootply" />\\n\\t\\t<meta name="viewport" content="width=device-width, initial-scale=1, maximum-scale=1"/>\\n\\t\\t<link rel="stylesheet" href="\', escape=False)\nresponse.write(URL(\'static\',\'/css/bootstrap.min.css\'))\nresponse.write(\'" />\\n\\t\\t<!--[if lt IE 9]>\\n\\t\\t\\t<script src="//html5shim.googlecode.com/svn/trunk/html5.js"></script>\\n\\t\\t<![endif]-->\\n\\t\\t<link rel="stylesheet" href="\', escape=False)\nresponse.write(URL(\'static\',\'/css/styles.css\'))\nresponse.write(\'"  />\\n\\t\\t<script type="text/javascript" src="\', escape=False)\nresponse.write(URL(\'static\',\'/js/json2.min.js\'))\nresponse.write(\'"></script>\\n\\t\\t<script type="text/javascript" src="\', escape=False)\nresponse.write(URL(\'static\',\'/js/AC_OETags.min.js\'))\nresponse.write(\'"></script>\\n\\t\\t<script type="text/javascript" src="\', escape=False)\nresponse.write(URL(\'static\',\'/js/cytoscapeweb.min.js\'))\nresponse.write(\'"></script>\\n\\t\\t<script src="\', escape=False)\nresponse.write(URL(\'static\',\'/js/jquery.min.js\'))\nresponse.write(\'" type="text/javascript"></script>\\n\\t\\t<script src="\', escape=False)\nresponse.write(URL(\'static\',\'/js/bootstrap.min.js\'))\nresponse.write(\'" type="text/javascript"></script>\\n\\t\\t<!--<script src="http://maps.googleapis.com/maps/api/js?sensor=false&extension=.js&output=embed"></script>-->\\n\\t\\t<script src="\', escape=False)\nresponse.write(URL(\'static\',\'/js/scripts.js\'))\nresponse.write(\'" type="text/javascript"></script>\\n\\t\\t<!--graph content-->\\n\\n\\n\\t\\t<script type="text/javascript">\\n            window.onload = function() {\\n\\t\\t\\t\\t\\t\\t\\tvar numberofpublications = []\\n\\t\\t\\t\\t\\t\\t\\tvar nameofauthors = []\\n\\t\\t\\t\\t\\t\\t\\t//console.log(\\\'test\\\')\\n\\t\\t\\t\\t\\t\\t\\t$(\\\'#publications\\\').each(function(){\\n\\t\\t\\t\\t\\t\\t\\t\\t\\tnumberofpublications.push($(this).text())\\n\\t\\t\\t\\t\\t\\t\\t})\\n\\t\\t\\t\\t\\t\\t\\tconsole.log(numberofpublications);\\n\\t\\t\\t\\t\\t\\t\\t/////////////////\\n\\t\\t\\t\\t\\t\\t\\t$(\\\'#author >\\\').each(function(){\\n\\t\\t\\t\\t\\t\\t\\t\\t\\tnameofauthors.push($(this).text())\\n\\t\\t\\t\\t\\t\\t\\t})\\n\\t\\t\\t\\t\\t\\t\\tconsole.log(nameofauthors);\\n                // id of Cytoscape Web container div\\n                var div_id = "cytoscapeweb";\\n\\n                // NOTE: - the attributes on nodes and edges\\n                //       - it also has directed edges, which will automatically display edge arrows\\n\\t\\t\\t\\t\\t\\t\\t\\t/*\\tdata = {\\n\\t\\t\\t\\t\\t\\t\\t\\t\\t\\t\\tnodes: [ { id: "1", label: String(nameofauthors[0]), foo: "Is this the real life?" },\\n\\t\\t\\t\\t\\t\\t\\t\\t\\t\\t\\t\\t\\t\\t\\t{ id: "2", label: String(nameofauthors[0]), foo: "Is this the real life?" },\\n\\t\\t\\t\\t\\t\\t\\t\\t\\t\\t\\t],\\n\\t\\t\\t\\t\\t\\t\\t\\t\\t\\t\\tedges: [ { id: "2to1", target: "2", source: "1", label: "2 to 1", bar: "Caught in a landslide..." }\\n\\t\\t\\t\\t\\t\\t\\t\\t\\t\\t\\t]\\n\\t\\t\\t\\t\\t\\t\\t\\t\\t}*/\\n\\t\\t\\t\\t\\t\\t\\t\\t\\tvar myJsonString = JSON.stringify(nameofauthors);\\n\\t\\t\\t\\t\\t\\t\\t\\t\\tconsole.log(myJsonString);\\n\\t\\t\\t\\t\\t\\t\\t\\tdata = {\\n\\t\\t\\t\\t\\t\\t\\t\\t\\t\\tnodes: [ { id: "1", label: String(nameofauthors[0]), foo: "Is this the real life?" }\\n\\n\\t\\t\\t\\t\\t\\t\\t\\t\\t\\t],\\n\\t\\t\\t\\t\\t\\t\\t\\t\\t\\tedges: [ { id: "2to1", target: "2", source: "1", label: "2 to 1", bar: "Caught in a landslide..." }\\n\\t\\t\\t\\t\\t\\t\\t\\t\\t\\t]\\n\\t\\t\\t\\t\\t\\t\\t\\t}\\n\\n\\n\\t\\t\\t\\t\\t\\t\\t\\tvar nodes = new Array();\\n\\n\\t\\t\\t\\t\\t\\t\\t\\t    for (var i=0;i < nameofauthors.length;i++){\\n\\t\\t\\t\\t\\t\\t\\t\\t        nodes[i] = {\\n\\t\\t\\t\\t\\t\\t\\t\\t            id:  i,\\n\\t\\t\\t\\t\\t\\t\\t\\t            label: nameofauthors[i],\\n\\n\\t\\t\\t\\t\\t\\t\\t\\t        };\\n\\t\\t\\t\\t\\t\\t\\t\\t    }\\n\\n\\t\\t\\t\\t\\t\\t\\t\\t    var stringJSON=JSON.stringify(nodes);\\n\\t\\t\\t\\t\\t\\t\\t\\t    //alert(stringJSON);\\n\\n\\n\\n\\t\\t\\t\\t\\t\\t\\t\\tvar network_json = {\\n\\t\\t\\t\\t\\t\\t\\t\\t\\tdataSchema: {\\n                            nodes: [ { name: "label", type: "string" },\\n                                     { name: "foo", type: "string" }\\n                                ],\\n                            edges: [ { name: "label", type: "string" },\\n                                     { name: "bar", type: "string" }\\n                            ]\\n                        },\\n                        // NOTE the custom attributes on nodes and edges\\n                        data: data\\n                };\\n\\n                function rand_color() {\\n                    function rand_channel() {\\n                        return Math.round( Math.random() * 255 );\\n                    }\\n\\n                    function hex_string(num) {\\n                        var ret = num.toString(16);\\n\\n                        if (ret.length < 2) {\\n                            return "0" + ret;\\n                        } else {\\n                            return ret;\\n                        }\\n                    }\\n\\n                    var r = rand_channel();\\n                    var g = rand_channel();\\n                    var b = rand_channel();\\n\\n                    return "#" + hex_string(r) + hex_string(g) + hex_string(b);\\n                }\\n\\n                // visual style we will use\\n                var visual_style = {\\n                    global: {\\n                        backgroundColor: "#ABCFD6"\\n                    },\\n                    nodes: {\\n                        shape: "CIRCLE",\\n                        borderWidth: 3,\\n                        borderColor: "#ffffff",\\n                        size: {\\n                            defaultValue: 25,\\n                            continuousMapper: { attrName: "weight", minValue: 25, maxValue: 75 }\\n                        },\\n                        color: {\\n                            discreteMapper: {\\n                                attrName: "id",\\n                                entries: [\\n                                    { attrValue: 1, value: "#0B94B1" },\\n                                    { attrValue: 2, value: "#9A0B0B" },\\n                                    { attrValue: 3, value: "#dddd00" }\\n                                ]\\n                            }\\n                        },\\n                        labelHorizontalAnchor: "center"\\n                    },\\n                    edges: {\\n                        width: 3,\\n                        color: "#0B94B1"\\n                    }\\n                };\\n\\n                // initialization options\\n                var options = {\\n                    swfPath: "\', escape=False)\nresponse.write(URL(\'static\',\'/swf/CytoscapeWeb\'))\nresponse.write(\'",\\n                    flashInstallerPath: "\', escape=False)\nresponse.write(URL(\'static\',\'/swf/playerProductInstall\'))\nresponse.write(\'"\\n                };\\n\\n                var vis = new org.cytoscapeweb.Visualization(div_id, options);\\n\\n                vis.ready(function() {\\n                    // set the style programmatically\\n                    document.getElementById("color").onclick = function(){\\n                        visual_style.global.backgroundColor = rand_color();\\n                        vis.visualStyle(visual_style);\\n                    };\\n                });\\n\\n                var draw_options = {\\n\\n\\t\\t\\t\\t\\t\\t\\t\\t\\t\\t// your data goes here\\n\\t\\t\\t\\t\\t\\t\\t\\t\\t\\t/*$.ajax({\\n            type: "GET",\\n            url: "data.json",\\n            dataType: "json",\\n                        error: function(){\\n                alert("Error loading file");\\n            },\\nsuccess: function(data){\\n}\\n});\\nvar netwdata = data.elements[0];\\nvis.draw({ network: netwdata });*/\\n\\n                    network: network_json,\\n\\n                    // show edge labels too\\n                    edgeLabelsVisible: true,\\n\\n                    // let\\\'s try another layout\\n                    layout: "Tree",\\n\\n                    // set the style at initialisation\\n                    visualStyle: visual_style,\\n\\n                    // hide pan zoom\\n                    panZoomControlVisible: true\\n                };\\n\\n                vis.draw(draw_options);\\n            };\\n        </script>\\n\\n        <style>\\n            * { margin: 0; padding: 0; font-family: Helvetica, Arial, Verdana, sans-serif; }\\n            html, body { height: 100%; width: 100%; padding: 0; margin: 0; background-color: #f0f0f0; }\\n            body { line-height: 1.5; color: #000000; font-size: 14px; }\\n            /* The Cytoscape Web container must have its dimensions set. */\\n            #cytoscapeweb { width: 100%; height: 80%; }\\n            #note { width: 100%; text-align: center; padding-top: 1em; }\\n            .link { text-decoration: underline; color: #0b94b1; cursor: pointer; }\\n        </style>\\n\\t\\t<!--endof graph content-->\\n\\t</head>\\n\\t<body>\\n<!-- begin template -->\\n<div class="navbar navbar-custom navbar-fixed-top">\\n <div class="navbar-header"><a class="navbar-brand" href="#">Brand</a>\\n      <a class="navbar-toggle" data-toggle="collapse" data-target=".navbar-collapse">\\n        <span class="icon-bar"></span>\\n        <span class="icon-bar"></span>\\n        <span class="icon-bar"></span>\\n      </a>\\n    </div>\\n    <div class="navbar-collapse collapse">\\n      <ul class="nav navbar-nav">\\n        <li class="active"><a href="#">Home</a></li>\\n        <li><a href="#">Link</a></li>\\n        <li><a href="#">Link</a></li>\\n        <li>&nbsp;</li>\\n      </ul>\\n      <form class="navbar-form">\\n        <div class="form-group" style="display:inline;">\\n          <div class="input-group">\\n            <div class="input-group-btn">\\n              <button type="button" class="btn btn-default dropdown-toggle" data-toggle="dropdown"><span class="glyphicon glyphicon-chevron-down"></span></button>\\n              <ul class="dropdown-menu">\\n                <li><a href="#">Category 1</a></li>\\n                <li><a href="#">Category 2</a></li>\\n                <li><a href="#">Category 3</a></li>\\n                <li><a href="#">Category 4</a></li>\\n                <li><a href="#">Category 5</a></li>\\n              </ul>\\n            </div>\\n            <input type="text" class="form-control" id="textinput"placeholder="Enter a Keyword" name="inputkeyword">\\n            <button class="btn btn-default" type="submit"  method="post"><span class="glyphicon glyphicon-search"></span> </button>\\n          </div>\\n        </div>\\n      </form>\\n    </div>\\n</div>\\n\\n<div id="map-canvas">\\n\\t<embed src="\', escape=False)\nresponse.write(URL(\'static\',\'/swf/CytoscapeWeb.swf\'))\nresponse.write(\'" width="100%" height="100%" align="middle" id="cytoscapeWeb1" quality="high" bgcolor="#ffffff" name="cytoscapeWeb1" allowscriptaccess="always" pluginspage="http://www.adobe.com/go/getflashplayer" wmode="opaque" flashvars="id=cytoscapeWeb1" type="application/x-shockwave-flash">\\n</div>\\n<div class="container-fluid" id="main">\\n  <div class="row">\\n  \\t<div class="col-xs-8" id="left">\\n      \', escape=False)\nresponse.write(\'\\n\\n<font color="blue">Results for \', escape=False)\nresponse.write(keyword)\nresponse.write(\':</font> (\', escape=False)\nresponse.write(matches)\nresponse.write(\' matches found!)<br>\\n<h3><b>Author Information</b></h3>\\n<ul id ="list">\\n<li><b>Name: </b>\', escape=False)\nresponse.write(authorname[1:-1])\nresponse.write(\'</li>\\n<li id = "adress"><b>Address: </b>\\n\', escape=False)\nfor article in articles:\n    response.write(\'\\n\\n  \', escape=False)\n    for author in article[\'authors\']:\n        response.write(\'\\n\\n      \', escape=False)\n        if author in authorname:\n            response.write(\'\\n        \', escape=False)\n            index=article[\'authors\'].index(author)\n            response.write(\'\\n      \', escape=False)\n        else:\n            continue\n        response.write(\'\\n  \', escape=False)\n        pass\n    response.write(\'\\n  \', escape=False)\n    if \'revisedAddress\' in article :\n        response.write(\'\\n    \', escape=False)\n        if len(article[\'revisedAddress\'])>= index+1:\n            response.write(\'\\n      \', escape=False)\n            response.write(article[\'revisedAddress\'][index][4:-4])\n            response.write(\'\\n      \', escape=False)\n            break\n        response.write(\'\\n    \', escape=False)\n    else:\n        response.write(\'\\n      \', escape=False)\n        continue\n    response.write(\'\\n  \', escape=False)\nelse:\n    response.write(\'\\n      \', escape=False)\n    for address in article[\'address\']:\n        response.write(\'\\n\\n        \', escape=False)\n        response.write(address[5:-2])\n        response.write(\'\\n\\n      \', escape=False)\n        pass\n    response.write(\'\\n  \', escape=False)\n    pass\nresponse.write(\'\\n\', escape=False)\npass\nresponse.write(\'\\n</li>\\n</ul>\\n<hr>\\n<h3><b>Articles</b></h3>\\n  \', escape=False)\nfor article in articles:\n    response.write(\'\\n<div id="page-wrapper">\\n\\n      <div class="row" >\\n            <div class="col-lg-12">\\n\\n              <ul id="list">\\n                <li>\\n                <b>\', escape=False)\n    response.write(article[\'title\'][0].upper())\n    response.write(\'</b>\\n                </li>\\n\\n                <li>\\n                  <b>Publish Date:</b> \', escape=False)\n    response.write(article[\'published\'][0])\n    response.write(\'\\n                </li>\\n                <li>\\n                  <b>Journal:</b> \', escape=False)\n    response.write(article[\'journal\'][0])\n    response.write(\'\\n                </li>\\n                <li>\\n                  <b>DOI: </b>\\n                  \', escape=False)\n    if \'DOI\' in article :\n        response.write(\'\\n                  \', escape=False)\n        url = article[\'DOI\'][0].replace(\'/\', \'%2\')\n        response.write(\'\\n                  <a href="http://doi.org/\', escape=False)\n        response.write(article[\'DOI\'][0])\n        response.write(\'" target="_blank">\', escape=False)\n        response.write(article[\'DOI\'][0])\n        response.write(\'</a>\\n                  \', escape=False)\n    else:\n        response.write(\'\\n                  -\\n                  \', escape=False)\n        pass\n    response.write(\'\\n                </li>\\n                <li>\\n                <b>Research Areas:</b> \', escape=False)\n    response.write(article[\'researchareas\'][0])\n    response.write(\'\\n                </li>\\n                <li>\\n                <b>Keywords: </b>\\n                \', escape=False)\n    if \'keywords\' in article :\n        response.write(\'\\n                  \', escape=False)\n        for keyword in article[\'keywords\']:\n            response.write(\'\\n                      \', escape=False)\n            response.write(keyword)\n            response.write(\',\\n                  \', escape=False)\n            pass\n        response.write(\'\\n                \', escape=False)\n    else:\n        response.write(\'\\n                    -\\n                \', escape=False)\n        pass\n    response.write(\'\\n                </li>\\n                <li>\\n                <b>Authors:</b>\\n                \', escape=False)\n    for author in article[\'authors\']:\n        response.write(\'\\n                \', escape=False)\n        response.write(author)\n        response.write(\'\\n                    \', escape=False)\n        if author in authorname:\n            response.write(\'\\n                      \', escape=False)\n            index=article[\'authors\'].index(author)\n            response.write(\'\\n                    \', escape=False)\n        else:\n            continue\n        response.write(\'\\n                \', escape=False)\n        pass\n    response.write(\'\\n                </li>\\n\\n\\n              </ul>\\n            </div>\\n      </div>\\n</div>\\n\', escape=False)\n    pass\nresponse.write(\'\\n\\n\\n\\n\\n<div class="table-responsive">\\n  <table class="table">\\n    <thead>\\n      <tr>\\n        <th>#</th>\\n        <th>Years</th>\\n        <th>Number of Publications</th>\\n\\n      </tr>\\n    </thead>\\n    <tbody>\\n      \', escape=False)\nfor i in range(len(facetListyears[0])):\n    response.write(\'\\n      <tr>\\n\\n        <td>\', escape=False)\n    response.write(i+1)\n    response.write(\'</td>\\n\\n        <td>\', escape=False)\n    response.write(facetListyears[0][i])\n    response.write(\'<a></td>\\n        <td>\', escape=False)\n    response.write(facetListyears[1][i])\n    response.write(\'</td>\\n\\n\\n\\n      </tr>\\n      \', escape=False)\n    pass\nresponse.write(\'\\n    </tbody>\\n  </table>\\n  </div>\\n\\n  <script>\\n  $(document).ready(function(){\\n    var chart = new Highcharts.Chart({\\n      title: {\\n          text: \\\'Number of news per day\\\',\\n          x: -20 //center\\n      },\\n      subtitle: {\\n          text: \\\'Source: Radikal.com\\\',\\n          x: -20\\n      },\\n\\n      chart: {\\n          renderTo: \\\'container\\\'\\n      },\\n\\n      xAxis: {\\n        categories: null,\\n        labels:{\\n          formatter:function(){\\n            return "<a href=\\\'#"+this.value +"\\\' >"+this.value+\\\'</a>\\\'\\n          },useHTML:true\\n        }\\n      },\\n      yAxis: {\\n          title: {\\n              text: \\\'Number of news\\\'\\n          },\\n          plotLines: [{\\n              value: 0,\\n              width: 1,\\n              color: \\\'#808080\\\'\\n          }]\\n      },\\n      tooltip: {\\n          valueSuffix: \\\' news released\\\'\\n      },\\n\\n      series: [{\\n          name: \\\'\', escape=False)\nresponse.write(keyword)\nresponse.write("\',\\n          //data: ", escape=False)\nresponse.write(freq)\nresponse.write(\'\\n      }]\\n\\n    });\\n      $(\\\'.hidden\\\').css(\\\'display\\\',\\\'none\\\')\\n      console.log(\\\'test\\\')\\n      var datelist = []\\n      $(\\\'ul.hidden li\\\').each(function(){\\n        datelist.push($(this).text())\\n      })\\n      console.log(datelist)\\n\\n      chart.xAxis[0].setCategories(datelist.sort());\\n  });\\n</script>\\n\\n<script src="https://code.highcharts.com/highcharts.js"></script>\\n<script src="https://code.highcharts.com/modules/exporting.js"></script>\', escape=False)\nresponse.write(\'\\n\\t\\t</div>\\n  </div>\\n</div>\\n<!-- end template -->\\n\\n\\t<!-- script references -->\\n\\n\\t</body>\\n</html>\\n\', escape=False)'
p7
sS'snapshot'
p8
(dp9
S'exception'
p10
(dp11
S'__hash__'
p12
S"<method-wrapper '__hash__' of exceptions.NameError object>"
p13
sS'__setattr__'
p14
S"<method-wrapper '__setattr__' of exceptions.NameError object>"
p15
sS'__reduce_ex__'
p16
S'<built-in method __reduce_ex__ of exceptions.NameError object>'
p17
sS'__getslice__'
p18
S"<method-wrapper '__getslice__' of exceptions.NameError object>"
p19
sS'__getitem__'
p20
S"<method-wrapper '__getitem__' of exceptions.NameError object>"
p21
sS'__setstate__'
p22
S'<built-in method __setstate__ of exceptions.NameError object>'
p23
sS'args'
p24
S'("name \'freq\' is not defined",)'
p25
sS'__reduce__'
p26
S'<built-in method __reduce__ of exceptions.NameError object>'
p27
sS'__str__'
p28
S"<method-wrapper '__str__' of exceptions.NameError object>"
p29
sS'__format__'
p30
S'<built-in method __format__ of exceptions.NameError object>'
p31
sS'__getattribute__'
p32
S"<method-wrapper '__getattribute__' of exceptions.NameError object>"
p33
sS'__class__'
p34
S"<type 'exceptions.NameError'>"
p35
sS'__unicode__'
p36
S'<built-in method __unicode__ of exceptions.NameError object>'
p37
sS'__delattr__'
p38
S"<method-wrapper '__delattr__' of exceptions.NameError object>"
p39
sS'__subclasshook__'
p40
S'<built-in method __subclasshook__ of type object>'
p41
sS'__repr__'
p42
S"<method-wrapper '__repr__' of exceptions.NameError object>"
p43
sS'__dict__'
p44
S'{}'
p45
sS'__sizeof__'
p46
S'<built-in method __sizeof__ of exceptions.NameError object>'
p47
sS'__doc__'
p48
S"'Name not found globally.'"
p49
sS'__init__'
p50
S"<method-wrapper '__init__' of exceptions.NameError object>"
p51
sS'__new__'
p52
S'<built-in method __new__ of type object>'
p53
ssS'evalue'
p54
S"name 'freq' is not defined"
p55
sS'request'
p56
cgluon.html
XML_unpickle
p57
(S's@^\x00\x00<div><table><tr><td style="font-weight:bold;vertical-align:top;">ajax</td><td style="vertical-align:top;">:</td><td><div>False</div></td></tr><tr><td style="font-weight:bold;vertical-align:top;">application</td><td style="vertical-align:top;">:</td><td><div>webofsciencenew</div></td></tr><tr><td style="font-weight:bold;vertical-align:top;">args</td><td style="vertical-align:top;">:</td><td><div><table><tr><td><div>_image_processing_</div></td></tr><tr><td><div>Tekalp__AM</div></td></tr></table></div></td></tr><tr><td style="font-weight:bold;vertical-align:top;">cid</td><td style="vertical-align:top;">:</td><td><div>None</div></td></tr><tr><td style="font-weight:bold;vertical-align:top;">client</td><td style="vertical-align:top;">:</td><td><div>127.0.0.1</div></td></tr><tr><td style="font-weight:bold;vertical-align:top;">controller</td><td style="vertical-align:top;">:</td><td><div>default</div></td></tr><tr><td style="font-weight:bold;vertical-align:top;">cookies</td><td style="vertical-align:top;">:</td><td><div><table><tr><td style="font-weight:bold;vertical-align:top;">session_id_admin</td><td style="vertical-align:top;">:</td><td><div>127.0.0.1-e2f1d3de-a54d-4d1d-9893-5b9b8385dac1<table><tr><td style="font-weight:bold;vertical-align:top;">comment</td><td style="vertical-align:top;">:</td><td><div></div></td></tr><tr><td style="font-weight:bold;vertical-align:top;">domain</td><td style="vertical-align:top;">:</td><td><div></div></td></tr><tr><td style="font-weight:bold;vertical-align:top;">expires</td><td style="vertical-align:top;">:</td><td><div></div></td></tr><tr><td style="font-weight:bold;vertical-align:top;">httponly</td><td style="vertical-align:top;">:</td><td><div></div></td></tr><tr><td style="font-weight:bold;vertical-align:top;">max-age</td><td style="vertical-align:top;">:</td><td><div></div></td></tr><tr><td style="font-weight:bold;vertical-align:top;">path</td><td style="vertical-align:top;">:</td><td><div></div></td></tr><tr><td style="font-weight:bold;vertical-align:top;">secure</td><td style="vertical-align:top;">:</td><td><div></div></td></tr><tr><td style="font-weight:bold;vertical-align:top;">version</td><td style="vertical-align:top;">:</td><td><div></div></td></tr></table></div></td></tr><tr><td style="font-weight:bold;vertical-align:top;">session_id_webofsciencenew</td><td style="vertical-align:top;">:</td><td><div>127.0.0.1-0bbc606e-0c86-49aa-a3a0-d3fea4ebea9f<table><tr><td style="font-weight:bold;vertical-align:top;">comment</td><td style="vertical-align:top;">:</td><td><div></div></td></tr><tr><td style="font-weight:bold;vertical-align:top;">domain</td><td style="vertical-align:top;">:</td><td><div></div></td></tr><tr><td style="font-weight:bold;vertical-align:top;">expires</td><td style="vertical-align:top;">:</td><td><div></div></td></tr><tr><td style="font-weight:bold;vertical-align:top;">httponly</td><td style="vertical-align:top;">:</td><td><div></div></td></tr><tr><td style="font-weight:bold;vertical-align:top;">max-age</td><td style="vertical-align:top;">:</td><td><div></div></td></tr><tr><td style="font-weight:bold;vertical-align:top;">path</td><td style="vertical-align:top;">:</td><td><div></div></td></tr><tr><td style="font-weight:bold;vertical-align:top;">secure</td><td style="vertical-align:top;">:</td><td><div></div></td></tr><tr><td style="font-weight:bold;vertical-align:top;">version</td><td style="vertical-align:top;">:</td><td><div></div></td></tr></table></div></td></tr><tr><td style="font-weight:bold;vertical-align:top;">session_id_welcome</td><td style="vertical-align:top;">:</td><td><div>127.0.0.1-dbad4f16-f782-45a1-be8c-522a8962a9f8<table><tr><td style="font-weight:bold;vertical-align:top;">comment</td><td style="vertical-align:top;">:</td><td><div></div></td></tr><tr><td style="font-weight:bold;vertical-align:top;">domain</td><td style="vertical-align:top;">:</td><td><div></div></td></tr><tr><td style="font-weight:bold;vertical-align:top;">expires</td><td style="vertical-align:top;">:</td><td><div></div></td></tr><tr><td style="font-weight:bold;vertical-align:top;">httponly</td><td style="vertical-align:top;">:</td><td><div></div></td></tr><tr><td style="font-weight:bold;vertical-align:top;">max-age</td><td style="vertical-align:top;">:</td><td><div></div></td></tr><tr><td style="font-weight:bold;vertical-align:top;">path</td><td style="vertical-align:top;">:</td><td><div></div></td></tr><tr><td style="font-weight:bold;vertical-align:top;">secure</td><td style="vertical-align:top;">:</td><td><div></div></td></tr><tr><td style="font-weight:bold;vertical-align:top;">version</td><td style="vertical-align:top;">:</td><td><div></div></td></tr></table></div></td></tr></table></div></td></tr><tr><td style="font-weight:bold;vertical-align:top;">env</td><td style="vertical-align:top;">:</td><td><div><table><tr><td style="font-weight:bold;vertical-align:top;">HTTP_ACCEPT</td><td style="vertical-align:top;">:</td><td><div>text/html,application/xhtml+xml,application/xml;q=0.9,image/webp,*/*;q=0.8</div></td></tr><tr><td style="font-weight:bold;vertical-align:top;">HTTP_ACCEPT_ENCODING</td><td style="vertical-align:top;">:</td><td><div>gzip, deflate, sdch</div></td></tr><tr><td style="font-weight:bold;vertical-align:top;">HTTP_ACCEPT_LANGUAGE</td><td style="vertical-align:top;">:</td><td><div>tr-TR,tr;q=0.8,en-US;q=0.6,en;q=0.4</div></td></tr><tr><td style="font-weight:bold;vertical-align:top;">HTTP_CACHE_CONTROL</td><td style="vertical-align:top;">:</td><td><div>max-age=0</div></td></tr><tr><td style="font-weight:bold;vertical-align:top;">HTTP_CONNECTION</td><td style="vertical-align:top;">:</td><td><div>keep-alive</div></td></tr><tr><td style="font-weight:bold;vertical-align:top;">HTTP_COOKIE</td><td style="vertical-align:top;">:</td><td><div>_ga=GA1.1.1065602752.1463081039; session_id_welcome=127.0.0.1-dbad4f16-f782-45a1-be8c-522a8962a9f8; session_id_webofsciencenew=127.0.0.1-0bbc606e-0c86-49aa-a3a0-d3fea4ebea9f; session_id_admin=127.0.0.1-e2f1d3de-a54d-4d1d-9893-5b9b8385dac1</div></td></tr><tr><td style="font-weight:bold;vertical-align:top;">HTTP_HOST</td><td style="vertical-align:top;">:</td><td><div>127.0.0.1:8000</div></td></tr><tr><td style="font-weight:bold;vertical-align:top;">HTTP_REFERER</td><td style="vertical-align:top;">:</td><td><div>http://127.0.0.1:8000/webofsciencenew/default/index?inputkeyword=%22image+processing%22</div></td></tr><tr><td style="font-weight:bold;vertical-align:top;">HTTP_UPGRADE_INSECURE_REQUESTS</td><td style="vertical-align:top;">:</td><td><div>1</div></td></tr><tr><td style="font-weight:bold;vertical-align:top;">HTTP_USER_AGENT</td><td style="vertical-align:top;">:</td><td><div>Mozilla/5.0 (X11; Linux x86_64) AppleWebKit/537.36 (KHTML, like Gecko) Chrome/51.0.2704.106 Safari/537.36</div></td></tr><tr><td style="font-weight:bold;vertical-align:top;">PATH_INFO</td><td style="vertical-align:top;">:</td><td><div>/webofsciencenew/default/author/&quot;image processing&quot;/Tekalp, AM/</div></td></tr><tr><td style="font-weight:bold;vertical-align:top;">QUERY_STRING</td><td style="vertical-align:top;">:</td><td><div></div></td></tr><tr><td style="font-weight:bold;vertical-align:top;">REMOTE_ADDR</td><td style="vertical-align:top;">:</td><td><div>127.0.0.1</div></td></tr><tr><td style="font-weight:bold;vertical-align:top;">REMOTE_PORT</td><td style="vertical-align:top;">:</td><td><div>52848</div></td></tr><tr><td style="font-weight:bold;vertical-align:top;">REQUEST_METHOD</td><td style="vertical-align:top;">:</td><td><div>GET</div></td></tr><tr><td style="font-weight:bold;vertical-align:top;">SCRIPT_NAME</td><td style="vertical-align:top;">:</td><td><div></div></td></tr><tr><td style="font-weight:bold;vertical-align:top;">SERVER_NAME</td><td style="vertical-align:top;">:</td><td><div>damla</div></td></tr><tr><td style="font-weight:bold;vertical-align:top;">SERVER_PORT</td><td style="vertical-align:top;">:</td><td><div>8000</div></td></tr><tr><td style="font-weight:bold;vertical-align:top;">SERVER_PROTOCOL</td><td style="vertical-align:top;">:</td><td><div>HTTP/1.1</div></td></tr><tr><td style="font-weight:bold;vertical-align:top;">SERVER_SOFTWARE</td><td style="vertical-align:top;">:</td><td><div>Rocket 1.2.6</div></td></tr><tr><td style="font-weight:bold;vertical-align:top;">app_folders</td><td style="vertical-align:top;">:</td><td><div>set([&#x27;/home/damla/web2py/applications/welcome/&#x27;, &#x27;/home/damla/web2py/applications/admin/&#x27;, &#x27;/home/damla/web2py/applications/webofsciencenew/&#x27;])</div></td></tr><tr><td style="font-weight:bold;vertical-align:top;">applications_parent</td><td style="vertical-align:top;">:</td><td><div>/home/damla/web2py</div></td></tr><tr><td style="font-weight:bold;vertical-align:top;">cmd_args</td><td style="vertical-align:top;">:</td><td><div><table></table></div></td></tr><tr><td style="font-weight:bold;vertical-align:top;">cmd_options</td><td style="vertical-align:top;">:</td><td><div>&lt;Values at 0x7f19ade423b0: {&#x27;verbose&#x27;: False, &#x27;ip&#x27;: &#x27;127.0.0.1&#x27;, &#x27;debuglevel&#x27;: 30, &#x27;with_scheduler&#x27;: False, &#x27;shutdown_timeout&#x27;: 5, &#x27;taskbar&#x27;: False, &#x27;with_coverage&#x27;: False, &#x27;pid_filename&#x27;: &#x27;httpserver.pid&#x27;, &#x27;maxthreads&#x27;: None, &#x27;softcron&#x27;: False, &#x27;server_name&#x27;: &#x27;damla&#x27;, &#x27;bpython&#x27;: False, &#x27;nogui&#x27;: False, &#x27;port&#x27;: 8000, &#x27;print_errors&#x27;: False, &#x27;extcron&#x27;: False, &#x27;runcron&#x27;: False, &#x27;run_system_tests&#x27;: False, &#x27;test&#x27;: None, &#x27;folder&#x27;: &#x27;/home/damla/web2py&#x27;, &#x27;config&#x27;: &#x27;&#x27;, &#x27;minthreads&#x27;: None, &#x27;shell&#x27;: None, &#x27;run&#x27;: &#x27;&#x27;, &#x27;log_filename&#x27;: &#x27;httpserver.log&#x27;, &#x27;profiler_dir&#x27;: None, &#x27;args&#x27;: [&#x27;&#x27;], &#x27;socket_timeout&#x27;: 5, &#x27;ssl_ca_certificate&#x27;: None, &#x27;scheduler&#x27;: None, &#x27;interfaces&#x27;: None, &#x27;ssl_private_key&#x27;: &#x27;&#x27;, &#x27;gae&#x27;: None, &#x27;password&#x27;: &#x27;******&#x27;, &#x27;request_queue_size&#x27;: 5, &#x27;ssl_certificate&#x27;: &#x27;&#x27;, &#x27;cronjob&#x27;: False, &#x27;numthreads&#x27;: None, &#x27;quiet&#x27;: False, &#x27;import_models&#x27;: False, &#x27;timeout&#x27;: 10, &#x27;plain&#x27;: False, &#x27;nobanner&#x27;: False}&gt;</div></td></tr><tr><td style="font-weight:bold;vertical-align:top;">db_sessions</td><td style="vertical-align:top;">:</td><td><div>set([])</div></td></tr><tr><td style="font-weight:bold;vertical-align:top;">debugging</td><td style="vertical-align:top;">:</td><td><div>False</div></td></tr><tr><td style="font-weight:bold;vertical-align:top;">gluon_parent</td><td style="vertical-align:top;">:</td><td><div>/home/damla/web2py</div></td></tr><tr><td style="font-weight:bold;vertical-align:top;">http_accept</td><td style="vertical-align:top;">:</td><td><div>text/html,application/xhtml+xml,application/xml;q=0.9,image/webp,*/*;q=0.8</div></td></tr><tr><td style="font-weight:bold;vertical-align:top;">http_accept_encoding</td><td style="vertical-align:top;">:</td><td><div>gzip, deflate, sdch</div></td></tr><tr><td style="font-weight:bold;vertical-align:top;">http_accept_language</td><td style="vertical-align:top;">:</td><td><div>tr-TR,tr;q=0.8,en-US;q=0.6,en;q=0.4</div></td></tr><tr><td style="font-weight:bold;vertical-align:top;">http_cache_control</td><td style="vertical-align:top;">:</td><td><div>max-age=0</div></td></tr><tr><td style="font-weight:bold;vertical-align:top;">http_connection</td><td style="vertical-align:top;">:</td><td><div>keep-alive</div></td></tr><tr><td style="font-weight:bold;vertical-align:top;">http_cookie</td><td style="vertical-align:top;">:</td><td><div>_ga=GA1.1.1065602752.1463081039; session_id_welcome=127.0.0.1-dbad4f16-f782-45a1-be8c-522a8962a9f8; session_id_webofsciencenew=127.0.0.1-0bbc606e-0c86-49aa-a3a0-d3fea4ebea9f; session_id_admin=127.0.0.1-e2f1d3de-a54d-4d1d-9893-5b9b8385dac1</div></td></tr><tr><td style="font-weight:bold;vertical-align:top;">http_host</td><td style="vertical-align:top;">:</td><td><div>127.0.0.1:8000</div></td></tr><tr><td style="font-weight:bold;vertical-align:top;">http_referer</td><td style="vertical-align:top;">:</td><td><div>http://127.0.0.1:8000/webofsciencenew/default/index?inputkeyword=%22image+processing%22</div></td></tr><tr><td style="font-weight:bold;vertical-align:top;">http_upgrade_insecure_requests</td><td style="vertical-align:top;">:</td><td><div>1</div></td></tr><tr><td style="font-weight:bold;vertical-align:top;">http_user_agent</td><td style="vertical-align:top;">:</td><td><div>Mozilla/5.0 (X11; Linux x86_64) AppleWebKit/537.36 (KHTML, like Gecko) Chrome/51.0.2704.106 Safari/537.36</div></td></tr><tr><td style="font-weight:bold;vertical-align:top;">is_jython</td><td style="vertical-align:top;">:</td><td><div>False</div></td></tr><tr><td style="font-weight:bold;vertical-align:top;">is_pypy</td><td style="vertical-align:top;">:</td><td><div>False</div></td></tr><tr><td style="font-weight:bold;vertical-align:top;">is_source</td><td style="vertical-align:top;">:</td><td><div>True</div></td></tr><tr><td style="font-weight:bold;vertical-align:top;">local_hosts</td><td style="vertical-align:top;">:</td><td><div><table><tr><td><div>damla</div></td></tr><tr><td><div>::1</div></td></tr><tr><td><div>127.0.1.1</div></td></tr><tr><td><div>::ffff:127.0.0.1</div></td></tr><tr><td><div>127.0.0.1</div></td></tr></table></div></td></tr><tr><td style="font-weight:bold;vertical-align:top;">path_info</td><td style="vertical-align:top;">:</td><td><div>/webofsciencenew/default/author/&quot;image processing&quot;/Tekalp, AM/</div></td></tr><tr><td style="font-weight:bold;vertical-align:top;">query_string</td><td style="vertical-align:top;">:</td><td><div></div></td></tr><tr><td style="font-weight:bold;vertical-align:top;">remote_addr</td><td style="vertical-align:top;">:</td><td><div>127.0.0.1</div></td></tr><tr><td style="font-weight:bold;vertical-align:top;">remote_port</td><td style="vertical-align:top;">:</td><td><div>52848</div></td></tr><tr><td style="font-weight:bold;vertical-align:top;">request_method</td><td style="vertical-align:top;">:</td><td><div>GET</div></td></tr><tr><td style="font-weight:bold;vertical-align:top;">request_uri</td><td style="vertical-align:top;">:</td><td><div>/webofsciencenew/default/author/&quot;image processing&quot;/Tekalp, AM/</div></td></tr><tr><td style="font-weight:bold;vertical-align:top;">script_name</td><td style="vertical-align:top;">:</td><td><div></div></td></tr><tr><td style="font-weight:bold;vertical-align:top;">server_name</td><td style="vertical-align:top;">:</td><td><div>damla</div></td></tr><tr><td style="font-weight:bold;vertical-align:top;">server_port</td><td style="vertical-align:top;">:</td><td><div>8000</div></td></tr><tr><td style="font-weight:bold;vertical-align:top;">server_protocol</td><td style="vertical-align:top;">:</td><td><div>HTTP/1.1</div></td></tr><tr><td style="font-weight:bold;vertical-align:top;">server_software</td><td style="vertical-align:top;">:</td><td><div>Rocket 1.2.6</div></td></tr><tr><td style="font-weight:bold;vertical-align:top;">web2py_path</td><td style="vertical-align:top;">:</td><td><div>/home/damla/web2py</div></td></tr><tr><td style="font-weight:bold;vertical-align:top;">web2py_version</td><td style="vertical-align:top;">:</td><td><div>2.14.5-stable+timestamp.2016.04.14.03.26.16</div></td></tr><tr><td style="font-weight:bold;vertical-align:top;">wsgi.errors</td><td style="vertical-align:top;">:</td><td><div>&lt;open file &#x27;&lt;stderr&gt;&#x27;, mode &#x27;w&#x27; at 0x7f19b25391e0&gt;</div></td></tr><tr><td style="font-weight:bold;vertical-align:top;">wsgi.file_wrapper</td><td style="vertical-align:top;">:</td><td><div>&lt;class wsgiref.util.FileWrapper at 0x7f19ade6e940&gt;</div></td></tr><tr><td style="font-weight:bold;vertical-align:top;">wsgi.input</td><td style="vertical-align:top;">:</td><td><div>&lt;socket._fileobject object at 0x7f19ac1af6d0&gt;</div></td></tr><tr><td style="font-weight:bold;vertical-align:top;">wsgi.multiprocess</td><td style="vertical-align:top;">:</td><td><div>False</div></td></tr><tr><td style="font-weight:bold;vertical-align:top;">wsgi.multithread</td><td style="vertical-align:top;">:</td><td><div>True</div></td></tr><tr><td style="font-weight:bold;vertical-align:top;">wsgi.run_once</td><td style="vertical-align:top;">:</td><td><div>False</div></td></tr><tr><td style="font-weight:bold;vertical-align:top;">wsgi.url_scheme</td><td style="vertical-align:top;">:</td><td><div>http</div></td></tr><tr><td style="font-weight:bold;vertical-align:top;">wsgi.version</td><td style="vertical-align:top;">:</td><td><div><table><tr><td><div>1</div></td></tr><tr><td><div>0</div></td></tr></table></div></td></tr><tr><td style="font-weight:bold;vertical-align:top;">wsgi_errors</td><td style="vertical-align:top;">:</td><td><div>&lt;open file &#x27;&lt;stderr&gt;&#x27;, mode &#x27;w&#x27; at 0x7f19b25391e0&gt;</div></td></tr><tr><td style="font-weight:bold;vertical-align:top;">wsgi_file_wrapper</td><td style="vertical-align:top;">:</td><td><div>&lt;class wsgiref.util.FileWrapper at 0x7f19ade6e940&gt;</div></td></tr><tr><td style="font-weight:bold;vertical-align:top;">wsgi_input</td><td style="vertical-align:top;">:</td><td><div>&lt;socket._fileobject object at 0x7f19ac1af6d0&gt;</div></td></tr><tr><td style="font-weight:bold;vertical-align:top;">wsgi_multiprocess</td><td style="vertical-align:top;">:</td><td><div>False</div></td></tr><tr><td style="font-weight:bold;vertical-align:top;">wsgi_multithread</td><td style="vertical-align:top;">:</td><td><div>True</div></td></tr><tr><td style="font-weight:bold;vertical-align:top;">wsgi_run_once</td><td style="vertical-align:top;">:</td><td><div>False</div></td></tr><tr><td style="font-weight:bold;vertical-align:top;">wsgi_url_scheme</td><td style="vertical-align:top;">:</td><td><div>http</div></td></tr><tr><td style="font-weight:bold;vertical-align:top;">wsgi_version</td><td style="vertical-align:top;">:</td><td><div><table><tr><td><div>1</div></td></tr><tr><td><div>0</div></td></tr></table></div></td></tr></table></div></td></tr><tr><td style="font-weight:bold;vertical-align:top;">extension</td><td style="vertical-align:top;">:</td><td><div>html</div></td></tr><tr><td style="font-weight:bold;vertical-align:top;">folder</td><td style="vertical-align:top;">:</td><td><div>/home/damla/web2py/applications/webofsciencenew/</div></td></tr><tr><td style="font-weight:bold;vertical-align:top;">function</td><td style="vertical-align:top;">:</td><td><div>author</div></td></tr><tr><td style="font-weight:bold;vertical-align:top;">global_settings</td><td style="vertical-align:top;">:</td><td><div><table><tr><td style="font-weight:bold;vertical-align:top;">app_folders</td><td style="vertical-align:top;">:</td><td><div>set([&#x27;/home/damla/web2py/applications/welcome/&#x27;, &#x27;/home/damla/web2py/applications/admin/&#x27;, &#x27;/home/damla/web2py/applications/webofsciencenew/&#x27;])</div></td></tr><tr><td style="font-weight:bold;vertical-align:top;">applications_parent</td><td style="vertical-align:top;">:</td><td><div>/home/damla/web2py</div></td></tr><tr><td style="font-weight:bold;vertical-align:top;">cmd_args</td><td style="vertical-align:top;">:</td><td><div><table></table></div></td></tr><tr><td style="font-weight:bold;vertical-align:top;">cmd_options</td><td style="vertical-align:top;">:</td><td><div>&lt;Values at 0x7f19ade423b0: {&#x27;verbose&#x27;: False, &#x27;ip&#x27;: &#x27;127.0.0.1&#x27;, &#x27;debuglevel&#x27;: 30, &#x27;with_scheduler&#x27;: False, &#x27;shutdown_timeout&#x27;: 5, &#x27;taskbar&#x27;: False, &#x27;with_coverage&#x27;: False, &#x27;pid_filename&#x27;: &#x27;httpserver.pid&#x27;, &#x27;maxthreads&#x27;: None, &#x27;softcron&#x27;: False, &#x27;server_name&#x27;: &#x27;damla&#x27;, &#x27;bpython&#x27;: False, &#x27;nogui&#x27;: False, &#x27;port&#x27;: 8000, &#x27;print_errors&#x27;: False, &#x27;extcron&#x27;: False, &#x27;runcron&#x27;: False, &#x27;run_system_tests&#x27;: False, &#x27;test&#x27;: None, &#x27;folder&#x27;: &#x27;/home/damla/web2py&#x27;, &#x27;config&#x27;: &#x27;&#x27;, &#x27;minthreads&#x27;: None, &#x27;shell&#x27;: None, &#x27;run&#x27;: &#x27;&#x27;, &#x27;log_filename&#x27;: &#x27;httpserver.log&#x27;, &#x27;profiler_dir&#x27;: None, &#x27;args&#x27;: [&#x27;&#x27;], &#x27;socket_timeout&#x27;: 5, &#x27;ssl_ca_certificate&#x27;: None, &#x27;scheduler&#x27;: None, &#x27;interfaces&#x27;: None, &#x27;ssl_private_key&#x27;: &#x27;&#x27;, &#x27;gae&#x27;: None, &#x27;password&#x27;: &#x27;******&#x27;, &#x27;request_queue_size&#x27;: 5, &#x27;ssl_certificate&#x27;: &#x27;&#x27;, &#x27;cronjob&#x27;: False, &#x27;numthreads&#x27;: None, &#x27;quiet&#x27;: False, &#x27;import_models&#x27;: False, &#x27;timeout&#x27;: 10, &#x27;plain&#x27;: False, &#x27;nobanner&#x27;: False}&gt;</div></td></tr><tr><td style="font-weight:bold;vertical-align:top;">db_sessions</td><td style="vertical-align:top;">:</td><td><div>set([])</div></td></tr><tr><td style="font-weight:bold;vertical-align:top;">debugging</td><td style="vertical-align:top;">:</td><td><div>False</div></td></tr><tr><td style="font-weight:bold;vertical-align:top;">gluon_parent</td><td style="vertical-align:top;">:</td><td><div>/home/damla/web2py</div></td></tr><tr><td style="font-weight:bold;vertical-align:top;">is_jython</td><td style="vertical-align:top;">:</td><td><div>False</div></td></tr><tr><td style="font-weight:bold;vertical-align:top;">is_pypy</td><td style="vertical-align:top;">:</td><td><div>False</div></td></tr><tr><td style="font-weight:bold;vertical-align:top;">is_source</td><td style="vertical-align:top;">:</td><td><div>True</div></td></tr><tr><td style="font-weight:bold;vertical-align:top;">local_hosts</td><td style="vertical-align:top;">:</td><td><div><table><tr><td><div>damla</div></td></tr><tr><td><div>::1</div></td></tr><tr><td><div>127.0.1.1</div></td></tr><tr><td><div>::ffff:127.0.0.1</div></td></tr><tr><td><div>127.0.0.1</div></td></tr></table></div></td></tr><tr><td style="font-weight:bold;vertical-align:top;">web2py_version</td><td style="vertical-align:top;">:</td><td><div>2.14.5-stable+timestamp.2016.04.14.03.26.16</div></td></tr></table></div></td></tr><tr><td style="font-weight:bold;vertical-align:top;">is_https</td><td style="vertical-align:top;">:</td><td><div>False</div></td></tr><tr><td style="font-weight:bold;vertical-align:top;">is_local</td><td style="vertical-align:top;">:</td><td><div>True</div></td></tr><tr><td style="font-weight:bold;vertical-align:top;">is_restful</td><td style="vertical-align:top;">:</td><td><div>False</div></td></tr><tr><td style="font-weight:bold;vertical-align:top;">is_scheduler</td><td style="vertical-align:top;">:</td><td><div>False</div></td></tr><tr><td style="font-weight:bold;vertical-align:top;">is_shell</td><td style="vertical-align:top;">:</td><td><div>False</div></td></tr><tr><td style="font-weight:bold;vertical-align:top;">now</td><td style="vertical-align:top;">:</td><td><div>datetime.datetime(2016, 7, 15, 11, 43, 30, 390268)</div></td></tr><tr><td style="font-weight:bold;vertical-align:top;">raw_args</td><td style="vertical-align:top;">:</td><td><div>&quot;image processing&quot;/Tekalp, AM</div></td></tr><tr><td style="font-weight:bold;vertical-align:top;">raw_extension</td><td style="vertical-align:top;">:</td><td><div>None</div></td></tr><tr><td style="font-weight:bold;vertical-align:top;">url</td><td style="vertical-align:top;">:</td><td><div>/webofsciencenew/default/author/&quot;image processing&quot;/Tekalp, AM/</div></td></tr><tr><td style="font-weight:bold;vertical-align:top;">utcnow</td><td style="vertical-align:top;">:</td><td><div>datetime.datetime(2016, 7, 15, 8, 43, 30, 390287)</div></td></tr><tr><td style="font-weight:bold;vertical-align:top;">wsgi</td><td style="vertical-align:top;">:</td><td><div>&lt;gluon.main.LazyWSGI object at 0x7f197e6c5290&gt;</div></td></tr></table></div>'
tRp58
sS'frames'
p59
(lp60
(dp61
S'file'
p62
S'/home/damla/web2py/gluon/restricted.py'
p63
sS'dump'
p64
(dp65
S'environment'
p66
S"{'A': <class 'gluon.html.A'>, 'ANY_OF': <class 'gluon.validators.ANY_OF'>, 'ASSIGNJS': <function ASSIGNJS>, 'AppConfig': <function AppConfig>, 'Auth': <class 'gluon.tools.Auth'>, 'B': <class 'gluon.html.B'>, 'BEAUTIFY': <class 'gluon.html.BEAUTIFY'>, 'BODY': <class 'gluon.html.BODY'>, 'BR': <class 'gluon.html.BR'>, 'BUTTON': <class 'gluon.html.BUTTON'>, ...}"
p67
sS'ccode'
p68
S'<code object <module> at 0x7f19ac1afcb0, file "/...bofsciencenew/views/default/author.html", line 1>'
p69
ssS'lnum'
p70
I227
sS'lines'
p71
(dp72
I224
S'            ccode = code'
p73
sI225
S'        else:'
p74
sI226
S'            ccode = compile2(code, layer)'
p75
sI227
S'        exec ccode in environment'
p76
sI228
S'    except HTTP:'
p77
sI229
S'        raise'
p78
sI230
S'    except RestrictedError:'
p79
sI231
S'        # do not encapsulate (obfuscate) the original RestrictedError'
p80
sI222
S'    try:'
p81
sI223
S'        if isinstance(code, types.CodeType):'
p82
ssS'call'
p83
S'(code=\'response.write(\\\'<!DOCTYPE html>\\\\n<html lang="en"...ences -->\\\\n\\\\n\\\\t</body>\\\\n</html>\\\\n\\\', escape=False)\', environment={\'A\': <class \'gluon.html.A\'>, \'ANY_OF\': <class \'gluon.validators.ANY_OF\'>, \'ASSIGNJS\': <function ASSIGNJS>, \'AppConfig\': <function AppConfig>, \'Auth\': <class \'gluon.tools.Auth\'>, \'B\': <class \'gluon.html.B\'>, \'BEAUTIFY\': <class \'gluon.html.BEAUTIFY\'>, \'BODY\': <class \'gluon.html.BODY\'>, \'BR\': <class \'gluon.html.BR\'>, \'BUTTON\': <class \'gluon.html.BUTTON\'>, ...}, layer=\'/home/damla/web2py/applications/webofsciencenew/views/default/author.html\')'
p84
sS'func'
p85
S'restricted'
p86
sa(dp87
g62
S'/home/damla/web2py/applications/webofsciencenew/views/default/author.html'
p88
sg64
(dp89
S'text'
p90
S'undefined'
p91
sS'subtitle'
p92
g91
sS'x'
g91
ssg70
I129
sg71
(dp93
I128
S'response.write("\',\\n          //data: ", escape=False)'
p94
sI129
S'response.write(freq)'
p95
sI130
S'response.write(\'\\n      }]\\n\\n    });\\n      $(\\\'.hidden\\\').css(\\\'display\\\',\\\'none\\\')\\n      console.log(\\\'test\\\')\\n      var datelist = []\\n      $(\\\'ul.hidden li\\\').each(function(){\\n        datelist.push($(this).text())\\n      })\\n      console.log(datelist)\\n\\n      chart.xAxis[0].setCategories(datelist.sort());\\n  });\\n</script>\\n\\n<script src="https://code.highcharts.com/highcharts.js"></script>\\n<script src="https://code.highcharts.com/modules/exporting.js"></script>\', escape=False)'
p96
sI131
S"response.write('\\n\\t\\t</div>\\n  </div>\\n</div>\\n<!-- end template -->\\n\\n\\t<!-- script references -->\\n\\n\\t</body>\\n</html>\\n', escape=False)"
p97
sI120
S"    response.write('</td>\\n\\n        <td>', escape=False)"
p98
sI121
S'    response.write(facetListyears[0][i])'
p99
sI122
S"    response.write('<a></td>\\n        <td>', escape=False)"
p100
sI123
S'    response.write(facetListyears[1][i])'
p101
sI124
S"    response.write('</td>\\n\\n\\n\\n      </tr>\\n      ', escape=False)"
p102
sI125
S'    pass'
p103
sI126
S'response.write(\'\\n    </tbody>\\n  </table>\\n  </div>\\n\\n  <script>\\n  $(document).ready(function(){\\n    var chart = new Highcharts.Chart({\\n      title: {\\n          text: \\\'Number of news per day\\\',\\n          x: -20 //center\\n      },\\n      subtitle: {\\n          text: \\\'Source: Radikal.com\\\',\\n          x: -20\\n      },\\n\\n      chart: {\\n          renderTo: \\\'container\\\'\\n      },\\n\\n      xAxis: {\\n        categories: null,\\n        labels:{\\n          formatter:function(){\\n            return "<a href=\\\'#"+this.value +"\\\' >"+this.value+\\\'</a>\\\'\\n          },useHTML:true\\n        }\\n      },\\n      yAxis: {\\n          title: {\\n              text: \\\'Number of news\\\'\\n          },\\n          plotLines: [{\\n              value: 0,\\n              width: 1,\\n              color: \\\'#808080\\\'\\n          }]\\n      },\\n      tooltip: {\\n          valueSuffix: \\\' news released\\\'\\n      },\\n\\n      series: [{\\n          name: \\\'\', escape=False)'
p104
sI127
S'response.write(keyword)'
p105
ssg83
S'()'
p106
sg85
S'<module>'
p107
sasS'pyver'
p108
S'Python 2.7.6: /usr/bin/python (prefix: /usr)'
p109
sS'session'
p110
g57
(S's\xb6\x00\x00\x00<div><table><tr><td style="font-weight:bold;vertical-align:top;">keyword</td><td style="vertical-align:top;">:</td><td><div>&quot;image processing&quot;</div></td></tr></table></div>'
tRp111
sS'etype'
p112
S"<type 'exceptions.NameError'>"
p113
sS'date'
p114
S'Fri Jul 15 11:43:30 2016'
p115
sS'response'
p116
g57
(S's=@\x00\x00<div><table><tr><td style="font-weight:bold;vertical-align:top;">body</td><td style="vertical-align:top;">:</td><td><div>&lt;cStringIO.StringO object at 0x7f197eac73e8&gt;</div></td></tr><tr><td style="font-weight:bold;vertical-align:top;">cookies</td><td style="vertical-align:top;">:</td><td><div><table><tr><td style="font-weight:bold;vertical-align:top;">session_id_webofsciencenew</td><td style="vertical-align:top;">:</td><td><div>127.0.0.1-0bbc606e-0c86-49aa-a3a0-d3fea4ebea9f<table><tr><td style="font-weight:bold;vertical-align:top;">comment</td><td style="vertical-align:top;">:</td><td><div></div></td></tr><tr><td style="font-weight:bold;vertical-align:top;">domain</td><td style="vertical-align:top;">:</td><td><div></div></td></tr><tr><td style="font-weight:bold;vertical-align:top;">expires</td><td style="vertical-align:top;">:</td><td><div></div></td></tr><tr><td style="font-weight:bold;vertical-align:top;">httponly</td><td style="vertical-align:top;">:</td><td><div></div></td></tr><tr><td style="font-weight:bold;vertical-align:top;">max-age</td><td style="vertical-align:top;">:</td><td><div></div></td></tr><tr><td style="font-weight:bold;vertical-align:top;">path</td><td style="vertical-align:top;">:</td><td><div>/</div></td></tr><tr><td style="font-weight:bold;vertical-align:top;">secure</td><td style="vertical-align:top;">:</td><td><div></div></td></tr><tr><td style="font-weight:bold;vertical-align:top;">version</td><td style="vertical-align:top;">:</td><td><div></div></td></tr></table></div></td></tr></table></div></td></tr><tr><td style="font-weight:bold;vertical-align:top;">delimiters</td><td style="vertical-align:top;">:</td><td><div><table><tr><td><div>{{</div></td></tr><tr><td><div>}}</div></td></tr></table></div></td></tr><tr><td style="font-weight:bold;vertical-align:top;">files</td><td style="vertical-align:top;">:</td><td><div><table></table></div></td></tr><tr><td style="font-weight:bold;vertical-align:top;">flash</td><td style="vertical-align:top;">:</td><td><div></div></td></tr><tr><td style="font-weight:bold;vertical-align:top;">form_label_separator</td><td style="vertical-align:top;">:</td><td><div></div></td></tr><tr><td style="font-weight:bold;vertical-align:top;">formstyle</td><td style="vertical-align:top;">:</td><td><div>bootstrap3_inline</div></td></tr><tr><td style="font-weight:bold;vertical-align:top;">generic_patterns</td><td style="vertical-align:top;">:</td><td><div><table><tr><td><div>*</div></td></tr></table></div></td></tr><tr><td style="font-weight:bold;vertical-align:top;">google_analytics_id</td><td style="vertical-align:top;">:</td><td><div>None</div></td></tr><tr><td style="font-weight:bold;vertical-align:top;">headers</td><td style="vertical-align:top;">:</td><td><div><table><tr><td style="font-weight:bold;vertical-align:top;">X-Powered-By</td><td style="vertical-align:top;">:</td><td><div>web2py</div></td></tr></table></div></td></tr><tr><td style="font-weight:bold;vertical-align:top;">logo</td><td style="vertical-align:top;">:</td><td><div><a class="navbar-brand" href="http://www.web2py.com/" id="web2py-logo"><b>web<span>2</span>py</b>&trade;&nbsp;</a></div></td></tr><tr><td style="font-weight:bold;vertical-align:top;">menu</td><td style="vertical-align:top;">:</td><td><div><table><tr><td><div><table><tr><td><div>Anasayfa</div></td></tr><tr><td><div>False</div></td></tr><tr><td><div>/webofsciencenew/default/index</div></td></tr><tr><td><div><table></table></div></td></tr></table></div></td></tr><tr><td><div><table><tr><td><div>Sitelerim</div></td></tr><tr><td><div>False</div></td></tr><tr><td><div>/admin/default/site</div></td></tr></table></div></td></tr><tr><td><div><table><tr><td><div>Bu Uygulama</div></td></tr><tr><td><div>False</div></td></tr><tr><td><div>#</div></td></tr><tr><td><div><table><tr><td><div><table><tr><td><div>Design</div></td></tr><tr><td><div>False</div></td></tr><tr><td><div>/admin/default/design/webofsciencenew</div></td></tr></table></div></td></tr><tr><td><div><li class="divider"></li></div></td></tr><tr><td><div><table><tr><td><div>Denet\xc3\xa7i</div></td></tr><tr><td><div>False</div></td></tr><tr><td><div>/admin/default/edit/webofsciencenew/controllers/default.py</div></td></tr></table></div></td></tr><tr><td><div><table><tr><td><div>G\xc3\xb6r\xc3\xbcn\xc3\xbcm</div></td></tr><tr><td><div>False</div></td></tr><tr><td><div>/admin/default/edit/webofsciencenew/views/default/author.html</div></td></tr></table></div></td></tr><tr><td><div><table><tr><td><div>DB Modeli</div></td></tr><tr><td><div>False</div></td></tr><tr><td><div>/admin/default/edit/webofsciencenew/models/db.py</div></td></tr></table></div></td></tr><tr><td><div><table><tr><td><div>Model Men\xc3\xbc</div></td></tr><tr><td><div>False</div></td></tr><tr><td><div>/admin/default/edit/webofsciencenew/models/menu.py</div></td></tr></table></div></td></tr><tr><td><div><table><tr><td><div>Config.ini</div></td></tr><tr><td><div>False</div></td></tr><tr><td><div>/admin/default/edit/webofsciencenew/private/appconfig.ini</div></td></tr></table></div></td></tr><tr><td><div><table><tr><td><div>\xc5\x9eablon</div></td></tr><tr><td><div>False</div></td></tr><tr><td><div>/admin/default/edit/webofsciencenew/views/layout.html</div></td></tr></table></div></td></tr><tr><td><div><table><tr><td><div>Stil \xc5\x9eablonu</div></td></tr><tr><td><div>False</div></td></tr><tr><td><div>/admin/default/edit/webofsciencenew/static/css/web2py-bootstrap3.css</div></td></tr></table></div></td></tr><tr><td><div><table><tr><td><div>Veritaban\xc4\xb1</div></td></tr><tr><td><div>False</div></td></tr><tr><td><div>/webofsciencenew/appadmin/index</div></td></tr></table></div></td></tr><tr><td><div><table><tr><td><div>Hatalar</div></td></tr><tr><td><div>False</div></td></tr><tr><td><div>/admin/default/errors/webofsciencenew</div></td></tr></table></div></td></tr><tr><td><div><table><tr><td><div>Hakk\xc4\xb1nda</div></td></tr><tr><td><div>False</div></td></tr><tr><td><div>/admin/default/about/webofsciencenew</div></td></tr></table></div></td></tr></table></div></td></tr></table></div></td></tr><tr><td><div><table><tr><td><div>web2py.com</div></td></tr><tr><td><div>False</div></td></tr><tr><td><div>#</div></td></tr><tr><td><div><table><tr><td><div><table><tr><td><div>\xc4\xb0ndir</div></td></tr><tr><td><div>False</div></td></tr><tr><td><div>http://www.web2py.com/examples/default/download</div></td></tr></table></div></td></tr><tr><td><div><table><tr><td><div>Destek</div></td></tr><tr><td><div>False</div></td></tr><tr><td><div>http://www.web2py.com/examples/default/support</div></td></tr></table></div></td></tr><tr><td><div><table><tr><td><div>Tan\xc4\xb1t\xc4\xb1m</div></td></tr><tr><td><div>False</div></td></tr><tr><td><div>http://web2py.com/demo_admin</div></td></tr></table></div></td></tr><tr><td><div><table><tr><td><div>H\xc4\xb1zl\xc4\xb1 \xc3\x96rnekler</div></td></tr><tr><td><div>False</div></td></tr><tr><td><div>http://web2py.com/examples/default/examples</div></td></tr></table></div></td></tr><tr><td><div><table><tr><td><div>SSS</div></td></tr><tr><td><div>False</div></td></tr><tr><td><div>http://web2py.com/AlterEgo</div></td></tr></table></div></td></tr><tr><td><div><table><tr><td><div>Videolar</div></td></tr><tr><td><div>False</div></td></tr><tr><td><div>http://www.web2py.com/examples/default/videos/</div></td></tr></table></div></td></tr><tr><td><div><table><tr><td><div>\xc3\x9ccretsiz uygulamalar</div></td></tr><tr><td><div>False</div></td></tr><tr><td><div>http://web2py.com/appliances</div></td></tr></table></div></td></tr><tr><td><div><table><tr><td><div>Eklentiler</div></td></tr><tr><td><div>False</div></td></tr><tr><td><div>http://web2py.com/plugins</div></td></tr></table></div></td></tr><tr><td><div><table><tr><td><div>Tarifeler</div></td></tr><tr><td><div>False</div></td></tr><tr><td><div>http://web2pyslices.com/</div></td></tr></table></div></td></tr></table></div></td></tr></table></div></td></tr><tr><td><div><table><tr><td><div>Kitap</div></td></tr><tr><td><div>False</div></td></tr><tr><td><div>#</div></td></tr><tr><td><div><table><tr><td><div><table><tr><td><div>Online book</div></td></tr><tr><td><div>False</div></td></tr><tr><td><div>http://www.web2py.com/book</div></td></tr></table></div></td></tr><tr><td><div><li class="divider"></li></div></td></tr><tr><td><div><table><tr><td><div>\xc3\x96nz\xc3\xb6s</div></td></tr><tr><td><div>False</div></td></tr><tr><td><div>http://www.web2py.com/book/default/chapter/00</div></td></tr></table></div></td></tr><tr><td><div><table><tr><td><div>Giri\xc5\x9f</div></td></tr><tr><td><div>False</div></td></tr><tr><td><div>http://www.web2py.com/book/default/chapter/01</div></td></tr></table></div></td></tr><tr><td><div><table><tr><td><div>Python</div></td></tr><tr><td><div>False</div></td></tr><tr><td><div>http://www.web2py.com/book/default/chapter/02</div></td></tr></table></div></td></tr><tr><td><div><table><tr><td><div>G\xc3\xb6z gezdir</div></td></tr><tr><td><div>False</div></td></tr><tr><td><div>http://www.web2py.com/book/default/chapter/03</div></td></tr></table></div></td></tr><tr><td><div><table><tr><td><div>\xc3\x87ekirdek</div></td></tr><tr><td><div>False</div></td></tr><tr><td><div>http://www.web2py.com/book/default/chapter/04</div></td></tr></table></div></td></tr><tr><td><div><table><tr><td><div>G\xc3\xb6r\xc3\xbcn\xc3\xbcmler</div></td></tr><tr><td><div>False</div></td></tr><tr><td><div>http://www.web2py.com/book/default/chapter/05</div></td></tr></table></div></td></tr><tr><td><div><table><tr><td><div>Veritaban\xc4\xb1</div></td></tr><tr><td><div>False</div></td></tr><tr><td><div>http://www.web2py.com/book/default/chapter/06</div></td></tr></table></div></td></tr><tr><td><div><table><tr><td><div>Bi\xc3\xa7imler ve Do\xc4\x9frulay\xc4\xb1c\xc4\xb1lar</div></td></tr><tr><td><div>False</div></td></tr><tr><td><div>http://www.web2py.com/book/default/chapter/07</div></td></tr></table></div></td></tr><tr><td><div><table><tr><td><div>E-posta ve k\xc4\xb1sa mesaj (SMS)</div></td></tr><tr><td><div>False</div></td></tr><tr><td><div>http://www.web2py.com/book/default/chapter/08</div></td></tr></table></div></td></tr><tr><td><div><table><tr><td><div>Eri\xc5\x9fim Denetimi</div></td></tr><tr><td><div>False</div></td></tr><tr><td><div>http://www.web2py.com/book/default/chapter/09</div></td></tr></table></div></td></tr><tr><td><div><table><tr><td><div>Hizmetler</div></td></tr><tr><td><div>False</div></td></tr><tr><td><div>http://www.web2py.com/book/default/chapter/10</div></td></tr></table></div></td></tr><tr><td><div><table><tr><td><div>Ajax Tarifleri</div></td></tr><tr><td><div>False</div></td></tr><tr><td><div>http://www.web2py.com/book/default/chapter/11</div></td></tr></table></div></td></tr><tr><td><div><table><tr><td><div>Bile\xc5\x9fenler ve Eklentiler</div></td></tr><tr><td><div>False</div></td></tr><tr><td><div>http://www.web2py.com/book/default/chapter/12</div></td></tr></table></div></td></tr><tr><td><div><table><tr><td><div>Yay\xc4\xb1nlama tarifleri</div></td></tr><tr><td><div>False</div></td></tr><tr><td><div>http://www.web2py.com/book/default/chapter/13</div></td></tr></table></div></td></tr><tr><td><div><table><tr><td><div>Di\xc4\x9fer Tarifler</div></td></tr><tr><td><div>False</div></td></tr><tr><td><div>http://www.web2py.com/book/default/chapter/14</div></td></tr></table></div></td></tr><tr><td><div><table><tr><td><div>Helping web2py</div></td></tr><tr><td><div>False</div></td></tr><tr><td><div>http://www.web2py.com/book/default/chapter/15</div></td></tr></table></div></td></tr><tr><td><div><table><tr><td><div>Buy web2py\'s book</div></td></tr><tr><td><div>False</div></td></tr><tr><td><div>http://stores.lulu.com/web2py</div></td></tr></table></div></td></tr></table></div></td></tr></table></div></td></tr><tr><td><div><table><tr><td><div>Topluluk</div></td></tr><tr><td><div>False</div></td></tr><tr><td><div>None</div></td></tr><tr><td><div><table><tr><td><div><table><tr><td><div>Gruplar</div></td></tr><tr><td><div>False</div></td></tr><tr><td><div>http://www.web2py.com/examples/default/usergroups</div></td></tr></table></div></td></tr><tr><td><div><table><tr><td><div>Twitter</div></td></tr><tr><td><div>False</div></td></tr><tr><td><div>http://twitter.com/web2py</div></td></tr></table></div></td></tr><tr><td><div><table><tr><td><div>Canl\xc4\xb1 Sohbet</div></td></tr><tr><td><div>False</div></td></tr><tr><td><div>http://webchat.freenode.net/?channels=web2py</div></td></tr></table></div></td></tr></table></div></td></tr></table></div></td></tr></table></div></td></tr><tr><td style="font-weight:bold;vertical-align:top;">meta</td><td style="vertical-align:top;">:</td><td><div><table><tr><td style="font-weight:bold;vertical-align:top;">author</td><td style="vertical-align:top;">:</td><td><div>Your Name &lt;you@example.com&gt;</div></td></tr><tr><td style="font-weight:bold;vertical-align:top;">description</td><td style="vertical-align:top;">:</td><td><div>a cool new app</div></td></tr><tr><td style="font-weight:bold;vertical-align:top;">generator</td><td style="vertical-align:top;">:</td><td><div>Web2py Web Framework</div></td></tr><tr><td style="font-weight:bold;vertical-align:top;">keywords</td><td style="vertical-align:top;">:</td><td><div><table><tr><td><div>web2py</div></td></tr><tr><td><div>python</div></td></tr><tr><td><div>framework</div></td></tr></table></div></td></tr></table></div></td></tr><tr><td style="font-weight:bold;vertical-align:top;">models_to_run</td><td style="vertical-align:top;">:</td><td><div><table><tr><td><div>^\\w+\\.py$</div></td></tr><tr><td><div>^default/\\w+\\.py$</div></td></tr><tr><td><div>^default/author/\\w+\\.py$</div></td></tr></table></div></td></tr><tr><td style="font-weight:bold;vertical-align:top;">postprocessing</td><td style="vertical-align:top;">:</td><td><div><table></table></div></td></tr><tr><td style="font-weight:bold;vertical-align:top;">session_client</td><td style="vertical-align:top;">:</td><td><div>127.0.0.1</div></td></tr><tr><td style="font-weight:bold;vertical-align:top;">session_cookie_compression_level</td><td style="vertical-align:top;">:</td><td><div>None</div></td></tr><tr><td style="font-weight:bold;vertical-align:top;">session_cookie_expires</td><td style="vertical-align:top;">:</td><td><div>None</div></td></tr><tr><td style="font-weight:bold;vertical-align:top;">session_data_name</td><td style="vertical-align:top;">:</td><td><div>session_data_webofsciencenew</div></td></tr><tr><td style="font-weight:bold;vertical-align:top;">session_file</td><td style="vertical-align:top;">:</td><td><div>&lt;open file &#x27;/home/damla/web2py/applications/webofsciencenew/sessions/0c2/022/127.0.0.1-0bbc606e-0c86-49aa-a3a0-d3fea4ebea9f&#x27;, mode &#x27;rb+&#x27; at 0x7f197eae6150&gt;</div></td></tr><tr><td style="font-weight:bold;vertical-align:top;">session_filename</td><td style="vertical-align:top;">:</td><td><div>/home/damla/web2py/applications/webofsciencenew/sessions/127.0.0.1-0bbc606e-0c86-49aa-a3a0-d3fea4ebea9f</div></td></tr><tr><td style="font-weight:bold;vertical-align:top;">session_hash</td><td style="vertical-align:top;">:</td><td><div>52b15c315da829ca1356f20becdc989c</div></td></tr><tr><td style="font-weight:bold;vertical-align:top;">session_id</td><td style="vertical-align:top;">:</td><td><div>127.0.0.1-0bbc606e-0c86-49aa-a3a0-d3fea4ebea9f</div></td></tr><tr><td style="font-weight:bold;vertical-align:top;">session_id_name</td><td style="vertical-align:top;">:</td><td><div>session_id_webofsciencenew</div></td></tr><tr><td style="font-weight:bold;vertical-align:top;">session_locked</td><td style="vertical-align:top;">:</td><td><div>True</div></td></tr><tr><td style="font-weight:bold;vertical-align:top;">session_masterapp</td><td style="vertical-align:top;">:</td><td><div>webofsciencenew</div></td></tr><tr><td style="font-weight:bold;vertical-align:top;">session_new</td><td style="vertical-align:top;">:</td><td><div>False</div></td></tr><tr><td style="font-weight:bold;vertical-align:top;">session_storage_type</td><td style="vertical-align:top;">:</td><td><div>file</div></td></tr><tr><td style="font-weight:bold;vertical-align:top;">status</td><td style="vertical-align:top;">:</td><td><div>200</div></td></tr><tr><td style="font-weight:bold;vertical-align:top;">subtitle</td><td style="vertical-align:top;">:</td><td><div></div></td></tr><tr><td style="font-weight:bold;vertical-align:top;">title</td><td style="vertical-align:top;">:</td><td><div>Webofsciencenew</div></td></tr><tr><td style="font-weight:bold;vertical-align:top;">view</td><td style="vertical-align:top;">:</td><td><div>default/author.html</div></td></tr></table></div>'
tRp117
sS'locals'
p118
(dp119
S'Service'
p120
S"<class 'gluon.tools.Service'>"
p121
sS'OBJECT'
p122
S"<class 'gluon.html.OBJECT'>"
p123
sS'SQLDB'
p124
S"<class 'pydal.base.DAL'>"
p125
sg110
S'<Storage {\'keyword\': \'"image processing"\'}>'
p126
sS'LINK'
p127
S"<class 'gluon.html.LINK'>"
p128
sS'BR'
p129
S"<class 'gluon.html.BR'>"
p130
sS'local_import'
p131
S'<function <lambda>>'
p132
sS'OPTGROUP'
p133
S"<class 'gluon.html.OPTGROUP'>"
p134
sS'__package__'
p135
S'None'
p136
sS'PRE'
p137
S"<class 'gluon.html.PRE'>"
p138
sS'IS_INT_IN_RANGE'
p139
S"<class 'gluon.validators.IS_INT_IN_RANGE'>"
p140
sS'IS_LOWER'
p141
S"<class 'gluon.validators.IS_LOWER'>"
p142
sS'IS_STRONG'
p143
S"<class 'gluon.validators.IS_STRONG'>"
p144
sS'cache'
p145
S'<gluon.cache.Cache object>'
p146
sS'IS_IN_DB'
p147
S"<class 'gluon.validators.IS_IN_DB'>"
p148
sS'TAG'
p149
S'<gluon.html.__TAG__ object>'
p150
sS'SQLField'
p151
S"<class 'pydal.objects.Field'>"
p152
sS'mail'
p153
S'<gluon.tools.Mail object>'
p154
sS'BODY'
p155
S"<class 'gluon.html.BODY'>"
p156
sS'IS_DATE_IN_RANGE'
p157
S"<class 'gluon.validators.IS_DATE_IN_RANGE'>"
p158
sS'IFRAME'
p159
S"<class 'gluon.html.IFRAME'>"
p160
sS'articles'
p161
S"[{'DOI': ['10.1109/ICIP.2008.4712202'], '_version_': 1537856507905835010, 'abstract': ['The Quality Layers concept is proposed and adopt...of the proposed method for several stereo videos.'], 'address': ['[ 1 ] Yasar Univ, TR-35100 Izmir, '], 'addressnumbers': ['[', '1', ']'], 'authors': ['Ozbek, N', 'Tekalp, AM'], 'id': '5ca5df1e-5210-4843-9539-613d7c996493', 'journal': ['2008 15TH IEEE INTERNATIONAL CONFERENCE ON IMAGE PROCESSING, VOLS 1-5'], 'keywords': ['H.264', 'SVC', 'MVC', 'SMVC'], 'keywordsplus': ['3DTV'], ...}, {'_version_': 1537856508699607046, 'abstract': ['We focus on the question of how we can select th...quality and bitrate for selected video sequences.'], 'address': ['[ 1 ] Ege Univ, Int Comp Inst, Izmir, '], 'authors': ['Ozbek, N', 'Tekalp, AM'], 'id': '5c7ae474-7c72-489a-bb7b-5234d5ba68cf', 'journal': ['2005 International Conference on Image Processing (ICIP), Vols 1-5'], 'published': ['2005'], 'researchareas': ['Computer Science; Imaging Science & Photographic Technology'], 'title': ['Fast H.264/AVC video encoding with multiple frame references'], 'webofsciencecategories': ['Computer Science, Artificial Intelligence; Imaging Science & Photographic Technology']}, {'DOI': ['10.1109/ICIP.2008.4712183'], '_version_': 1537856507905835011, 'abstract': ['It is envisioned that access networks will be mo...nd results in better video streaming experiences.'], 'address': ['[ 1 ] Koc Univ, Dept Elect & Comp Engn, Istanbul, '], 'addressnumbers': ['[', '1', ']', '[', '1', ']', '[', '1', ']'], 'authors': ['Gorkemli, B', 'Sunay, MO', 'Tekalp, AM'], 'id': '2a544313-fa8b-46d5-afe6-ce1e46e949c9', 'journal': ['2008 15TH IEEE INTERNATIONAL CONFERENCE ON IMAGE PROCESSING, VOLS 1-5'], 'keywords': ['wireless', 'congestion control', 'DCCP', 'TFRC', 'scalable coding', 'streaming'], 'published': ['2008'], ...}, {'DOI': ['10.1109/TIP.2005.863053'], '_version_': 1537856508423831554, 'abstract': ['We present a novel framework for lossless (inver...generalized-least significant bit data embedding.'], 'address': ['[ 1 ] Univ Rochester, Dept Elect & Comp Engn, Rochester, NY 14627 USA', '[ 2 ] Koc Univ, Coll Engn, Istanbul, '], 'authors': ['Celik, MU', 'Sharma, G', 'Tekalp, AM'], 'id': '9acb8bf8-d9ed-4e6d-8046-620843f363d7', 'journal': ['IEEE TRANSACTIONS ON IMAGE PROCESSING'], 'keywords': ['forgery detection', 'invertible authentication', 'lossless compression', 'reversible data embedding', 'tamper localization'], 'keywordsplus': ['DIGITAL WATERMARKING', 'LOCALIZATION', 'SCHEMES'], 'published': ['APR 2006'], ...}, {'DOI': ['10.1109/ICIP.2006.313106'], '_version_': 1537856508520300548, 'abstract': ['Hierarchical mesh representation and mesh simpli...progressive transmission and quality scalability.'], 'address': ['[ 1 ] Istanbul Tech Univ, Dept Elect Commun Engn, TR-80626 Istanbul, '], 'authors': ['Celasun, I', 'Eroksuz, S', 'Siddiqui, RA', 'Tekalp, AM'], 'id': '73dc153e-4bba-48f3-946b-84e673751b4a', 'journal': ['2006 IEEE INTERNATIONAL CONFERENCE ON IMAGE PROCESSING, ICIP 2006, PROCEEDINGS'], 'keywords': ['hierarchical mesh design', 'scalable geometry compression', 'progressive coding'], 'published': ['2006'], 'researchareas': ['Computer Science; Imaging Science & Photographic...gy; Radiology, Nuclear Medicine & Medical Imaging'], ...}, {'DOI': ['10.1109/ICIP.2006.312680'], '_version_': 1537856508521349120, 'abstract': ['In mobile video transmission systems, the initia...dulers in terms of QoS fairness and user utility.'], 'address': ['[ 1 ] Koc Univ, Coll Engn, TR-34450 Istanbul, '], 'authors': ['Ozcelebi, T', 'Sunay, MO', 'Civanlar, MR', 'Tekalp, AM'], 'id': '8fc5adab-8473-46c0-b2f9-652c74dea9bc', 'journal': ['2006 IEEE International Conference on Image Processing, ICIP 2006, Proceedings'], 'keywords': ['mobile communication', 'optimization', 'quality assurance', 'scheduling', 'video'], 'published': ['2006'], 'researchareas': ['Computer Science; Imaging Science & Photographic...gy; Radiology, Nuclear Medicine & Medical Imaging'], ...}, {'DOI': ['10.1109/TIP.2004.840686'], '_version_': 1537856508687024131, 'abstract': ['We present a novel lossless (reversible) data-em... and, thus, the lossless data-embedding capacity.'], 'address': ['[ 1 ] Univ Rochester, Dept Elect & Comp Engn, Rochester, NY 14627 USA', '[ 2 ] Univ Rochester, Dept Biostat & Computat Biol, Rochester, NY 14627 USA', '[ 3 ] Koc Univ, Coll Engn, Istanbul, ', '[ 4 ] Xerox Corp, Webster, NY 14580 USA'], 'authors': ['Celik, MU', 'Sharma, G', 'Tekalp, AM', 'Saber, E'], 'id': '03a1d2cf-4264-4bd4-9cad-b8776a680e66', 'journal': ['IEEE TRANSACTIONS ON IMAGE PROCESSING'], 'keywords': ['arithmetic coding', 'conditional entropy coding', 'context modeling', 'data embedding', 'data hiding', 'least significant bit (LSB) modification', 'watermark'], 'keywordsplus': ['WATERMARKING', 'COMPRESSION'], 'published': ['FEB 2005'], ...}, {'_version_': 1537856508700655616, 'abstract': ['We present a new channel adaptive stream switchi...opposed to a regular non-adaptive Streaming case.'], 'address': ['[ 1 ] Koc Univ, Coll Engn, Istanbul, '], 'authors': ['Ozcelebi, T', 'Civanlar, MR', 'Tekalp, AM'], 'id': '7e861e57-b3eb-414a-b02a-822c03613365', 'journal': ['2005 International Conference on Image Processing (ICIP), Vols 1-5'], 'keywords': ['stream switching', 'multiple objective optimization', 'content adaptation', 'delay-distortion optimization'], 'published': ['2005'], 'researchareas': ['Computer Science; Imaging Science & Photographic Technology'], 'title': ['Minimum delay content adaptive video streaming o...e channels with a novel stream switching solution'], ...}, {'_version_': 1537856508702752768, 'abstract': ['Multiple description video coding mitigates the ...ulation of a peer-to-peer video streaming system.'], 'address': ['[ 1 ] Koc Univ, Coll Engn, Istanbul, '], 'authors': ['Akyol, E', 'Tekalp, AM', 'Civanlar, MR'], 'id': 'f6d25d87-a3ab-40ac-bd64-4a8179b03256', 'journal': ['2005 International Conference on Image Processing (ICIP), Vols 1-5'], 'published': ['2005'], 'researchareas': ['Computer Science; Imaging Science & Photographic Technology'], 'title': ['Scalable multiple description video coding with flexible number of descriptions'], 'webofsciencecategories': ['Computer Science, Artificial Intelligence; Imaging Science & Photographic Technology']}, {'DOI': ['10.1109/TIP.2004.828427'], '_version_': 1537856508795027458, 'abstract': ['We propose measures to evaluate quantitatively t...equences using different segmentation approaches.'], 'address': ['[ 1 ] Momentum Digital Media Technol Inc, TR-80815 Bebek, ', '[ 2 ] Bogazici Univ, Dept Elect & Elect Engn, TR-80815 Istanbul, ', '[ 3 ] Bogazici Univ, Dept Elect & Elect Engn, TR-80815 Bebek, ', '[ 4 ] Univ Rochester, Dept Elect & Comp Engn, Rochester, NY 14627 USA', '[ 5 ] Koc Univ, Coll Engn, TR-80815 Bebek, '], 'authors': ['Erdem, CE', 'Sankur, B', 'Tekalp, AM'], 'id': '9957928a-5f95-4e54-abfa-0e57dbc4af45', 'journal': ['IEEE TRANSACTIONS ON IMAGE PROCESSING'], 'keywords': ['canonical correlation analysis', 'object segmentation', 'object tracking', 'performance evaluation without ground truth (GT)'], 'keywordsplus': ['IMAGE SEGMENTATION'], 'published': ['JUL 2004'], ...}, {'_version_': 1537856508850601988, 'abstract': ['This paper addresses the selection of best lip m...stem are included to demonstrate the performance.'], 'address': ['[ 1 ] Koc Univ, Coll Engn, Multimedia Vis & Graph Lab, TR-34450 Istanbul, '], 'authors': ['Cetingul, HE', 'Yemez, Y', 'Erzin, E', 'Tekalp, AM'], 'id': 'fa25af0e-bb28-4d9e-a731-bed0ea7c9ac4', 'journal': ['ICIP: 2004 INTERNATIONAL CONFERENCE ON IMAGE PROCESSING, VOLS 1- 5'], 'keywordsplus': ['SPEECH'], 'published': ['2004'], 'researchareas': ['Computer Science; Imaging Science & Photographic Technology'], 'title': ['Discriminative lip-motion features for biometric speaker identification'], ...}, {'_version_': 1537856508852699142, 'abstract': ['We propose an adaptive motion-compensated tempor...cture within fully scalable wavelet video codecs.'], 'address': ['[ 1 ] Koc Univ, Coll Engn, Istanbul, '], 'authors': ['Akyol, E', 'Tekalp, AM', 'Civanlar, MR'], 'id': '0228c978-83cb-47cd-9478-43eba69c3ae1', 'journal': ['ICIP: 2004 INTERNATIONAL CONFERENCE ON IMAGE PROCESSING, VOLS 1- 5'], 'published': ['2004'], 'researchareas': ['Computer Science; Imaging Science & Photographic Technology'], 'title': ['Motion-compensated temporal filtering within the H.264/AVC standard'], 'webofsciencecategories': ['Computer Science, Software Engineering; Imaging Science & Photographic Technology']}, {'_version_': 1537856508853747712, 'abstract': ['A novel dynamic programming based technique for ...ntation are demonstrated by experimental results.'], 'address': ['[ 1 ] Kochi Univ, Coll Engn, Istanbul, '], 'authors': ['Ozcelebi, T', 'Tekalp, AM', 'Civanlar, MR'], 'id': 'b61c5d94-d286-4f3c-a8ce-5899ea32d28c', 'journal': ['ICIP: 2004 INTERNATIONAL CONFERENCE ON IMAGE PROCESSING, VOLS 1- 5'], 'published': ['2004'], 'researchareas': ['Computer Science; Imaging Science & Photographic Technology'], 'title': ['Optimal rate and input format control for content and context adaptive video streaming'], 'webofsciencecategories': ['Computer Science, Software Engineering; Imaging Science & Photographic Technology']}, {'DOI': ['10.1109/TIP.2003.815259'], '_version_': 1537856508926099460, 'abstract': ['This research presents a new model-based approac... movement captured in a complex home environment.'], 'address': ['[ 1 ] Univ Rochester, Dept Elect & Comp Engn, Rochester, NY 14627 USA', '[ 2 ] Univ Rochester, Med Ctr, Dept Neurol, Rochester, NY 14642 USA', '[ 3 ] Univ Rochester, Med Ctr, Strong Epilepsy Ctr, Rochester, NY 14642 USA', '[ 4 ] Kochi Univ, Coll Engn, Istanbul, '], 'authors': ['Dockstader, SL', 'Berg, MJ', 'Tekalp, AM'], 'id': 'c6c0bf76-3cfa-4459-a806-d93c4f820a55', 'journal': ['IEEE TRANSACTIONS ON IMAGE PROCESSING'], 'keywords': ['failure analysis', 'gait analysis', 'human motion analysis', 'Kalman filtering', 'kinematic modeling', 'multi-object tracking', 'occlusion'], 'keywordsplus': ['HUMAN MOTION', 'IMAGE SEQUENCE', 'HUMAN MOVEMENT', 'RECOGNITION', 'TRACKING', 'PROPAGATION', 'PERCEPTION'], 'published': ['AUG 2003'], ...}, {'_version_': 1537856508948119554, 'abstract': ['In this paper we present a multimodal audio-visu...uded for demonstration of the system performance.'], 'address': ['[ 1 ] Koc Univ, Coll Engn, Multimedia Vis & Graph Lab, TR-34450 Istanbul, '], 'authors': ['Yemez, Y', 'Kanak, A', 'Erzin, E', 'Tekalp, AM'], 'id': '70a42084-28eb-43c5-bf0d-1126190aa778', 'journal': ['2003 INTERNATIONAL CONFERENCE ON IMAGE PROCESSING, VOL 3, PROCEEDINGS'], 'keywordsplus': ['SPEECH', 'RECOGNITION', 'TUTORIAL'], 'published': ['2003'], 'researchareas': ['Computer Science; Imaging Science & Photographic Technology'], 'title': ['Multimodal speaker identification with audio-video processing'], ...}, {'_version_': 1537856509060317186, 'abstract': ['SeveraI fragile watermarking schemes presented i...s to demonstrate the effectiveness of our method.'], 'address': ['[ 1 ] Univ Rochester, Dept Comp Engn, Rochester, NY 14627 USA', '[ 2 ] Xerox Corp, Webster, NY 14580 USA', '[ 3 ] Koc Univ, Coll Engn, Istanbul, '], 'authors': ['Celik, MU', 'Sharma, G', 'Saber, E', 'Tekalp, AM'], 'id': '9a0ee85a-61bd-44ce-a028-381557a9b945', 'journal': ['IEEE TRANSACTIONS ON IMAGE PROCESSING'], 'keywords': ['authentication', 'fragile watermark', 'tamper localization', 'vector quantization attack'], 'keywordsplus': ['MULTIMEDIA'], 'published': ['JUN 2002'], 'researchareas': ['Computer Science; Engineering'], ...}, {'_version_': 1537856509144203268, 'abstract': ['We present metrics to evaluate the performance o...ion of the good and bad segments of the boundary.'], 'address': ['[ 1 ] Bogazici Univ, Dept Elect & Elect Engn, TR-80815 Istanbul, '], 'authors': ['Erdem, CE', 'Tekalp, AM', 'Sankur, B'], 'id': '91933374-173f-459c-9bd1-20efec25bee5', 'journal': ['2001 INTERNATIONAL CONFERENCE ON IMAGE PROCESSING, VOL II, PROCEEDINGS'], 'published': ['2001'], 'researchareas': ['Computer Science; Engineering'], 'title': ['Metrics for performance evaluation of video object segmentation and tracking without ground-truth'], 'webofsciencecategories': ['Computer Science, Software Engineering; Computer...y & Methods; Engineering, Electrical & Electronic']}, {'DOI': ['10.1006/gmip.1996.0046'], '_version_': 1537856509349724163, 'abstract': ['We propose a method for tracking the motion and ...al image sequences. (C) 1996 Academic Press, Inc.'], 'address': ['[ 1 ] MERCK SHARP & DOHME RES LABS, CAMAS, WA 98607 USA', '[ 2 ] UNIV ROCHESTER, DEPT ELECT ENGN, ROCHESTER, NY 14627 USA', '[ 3 ] UNIV ROCHESTER, CTR ELECT IMAGING SYST, ROCHESTER, NY 14627 USA', '[ 4 ] BILKENT UNIV, DEPT ELECT & ELECT ENGN, TR-06533 ANKARA, ', '[ 5 ] EASTMAN KODAK CO, IMAGING RES & ADV DEV, ROCHESTER, NY 14650 USA'], 'authors': ['Toklu, C', 'Erdem, AT', 'Sezan, MI', 'Tekalp, AM'], 'id': '6ff9f074-bc93-447d-96f5-d6c0fb14da3f', 'journal': ['GRAPHICAL MODELS AND IMAGE PROCESSING'], 'keywordsplus': ['IMAGE SEQUENCE', 'SCHEME'], 'published': ['NOV 1996'], 'researchareas': ['Computer Science\\n'], ...}, {'DOI': ['10.1109/ICIP.2009.5414021'], '_version_': 1537856507541979137, 'abstract': ['Peer-to-peer (P2P) video streaming is a promisin...d peers with lower bandwidth are near the leaves.'], 'address': ['[ 1 ] Ege Univ, Intl Comp Inst, TR-35100 Izmir, '], 'addressnumbers': ['[', '1', ']', '[', '1', ']'], 'authors': ['Fesci-Sayit, M', 'Tunali, ET', 'Tekalp, AM'], 'id': 'fd4dd995-ec95-4ac4-91c6-889ec817ace9', 'journal': ['2009 16TH IEEE INTERNATIONAL CONFERENCE ON IMAGE PROCESSING, VOLS 1-6'], 'keywords': ['P2P video streaming', 'scalable video coding', 'bandwidth-aware multicast tree formation'], 'published': ['2009'], ...}, {'DOI': ['10.1109/ICIP.2009.5414317'], '_version_': 1537856507541979138, 'abstract': ['It is well known that the human visual system ca...hat takes the 3D display technology into account.'], 'address': ['[ 1 ] Koc Univ, Coll Engn, TR-34450 Istanbul, '], 'addressnumbers': ['[', '1', ']', '[', '1', ']', '[', '1', ']'], 'authors': ['Saygili, G', 'Gurler, CG', 'Tekalp, AM'], 'id': '022d9c85-ce4d-42cc-9b6c-5f359eee48db', 'journal': ['2009 16TH IEEE INTERNATIONAL CONFERENCE ON IMAGE PROCESSING, VOLS 1-6'], 'keywords': ['Stereo video', 'Scalable video coding', 'Inter-view rate allocation', '3D video quality evaluation'], 'published': ['2009'], ...}, ...]"
p162
sS'URL'
p163
S'<function URL>'
p164
sS'__file__'
p165
S"'/home/damla/web2py/applications/webofsciencenew/views/default/author.html'"
p166
sS'db'
p167
S'<DAL uri="sqlite://storage.sqlite">'
p168
sS'auth'
p169
S'<gluon.tools.Auth object>'
p170
sS'P'
S"<class 'gluon.html.P'>"
p171
sS'TFOOT'
p172
S"<class 'gluon.html.TFOOT'>"
p173
sS'XHTML'
p174
S"<class 'gluon.html.XHTML'>"
p175
sS'mydict'
p176
S"{'1996': 1, '2000': 2, '2001': 1, '2002': 2, '2003': 3, '2004': 4, '2005': 4, '2006': 5, '2007': 2, '2008': 3, ...}"
p177
sS'ON'
p178
S'True'
p179
sS'OL'
p180
S"<class 'gluon.html.OL'>"
p181
sS'IS_JSON'
p182
S"<class 'gluon.validators.IS_JSON'>"
p183
sS'TEXTAREA'
p184
S"<class 'gluon.html.TEXTAREA'>"
p185
sS'MENU'
p186
S"<class 'gluon.html.MENU'>"
p187
sS'IS_IMAGE'
p188
S"<class 'gluon.validators.IS_IMAGE'>"
p189
sS'EM'
p190
S"<class 'gluon.html.EM'>"
p191
sS'CODE'
p192
S"<class 'gluon.html.CODE'>"
p193
sS'HTTP'
p194
S"<class 'gluon.http.HTTP'>"
p195
sS'HR'
p196
S"<class 'gluon.html.HR'>"
p197
sS'IS_DATETIME'
p198
S"<class 'gluon.validators.IS_DATETIME'>"
p199
sS'STYLE'
p200
S"<class 'gluon.html.STYLE'>"
p201
sS'LABEL'
p202
S"<class 'gluon.html.LABEL'>"
p203
sS'CLEANUP'
p204
S"<class 'gluon.validators.CLEANUP'>"
p205
sS'plugins'
p206
S'<gluon.tools.PluginManager object>'
p207
sS'SELECT'
p208
S"<class 'gluon.html.SELECT'>"
p209
sS'index'
p210
S'2'
sS'CENTER'
p211
S"<class 'gluon.html.CENTER'>"
p212
sS'Auth'
p213
S"<class 'gluon.tools.Auth'>"
p214
sS'DEVELOPMENT_MENU'
p215
g179
sS'__builtins__'
p216
S"{'ArithmeticError': <type 'exceptions.ArithmeticError'>, 'AssertionError': <type 'exceptions.AssertionError'>, 'AttributeError': <type 'exceptions.AttributeError'>, 'BaseException': <type 'exceptions.BaseException'>, 'BufferError': <type 'exceptions.BufferError'>, 'BytesWarning': <type 'exceptions.BytesWarning'>, 'DeprecationWarning': <type 'exceptions.DeprecationWarning'>, 'EOFError': <type 'exceptions.EOFError'>, 'Ellipsis': Ellipsis, 'EnvironmentError': <type 'exceptions.EnvironmentError'>, ...}"
p217
sS'HTML'
p218
S"<class 'gluon.html.HTML'>"
p219
sS'SQLFORM'
p220
S"<class 'gluon.sqlhtml.SQLFORM'>"
p221
sS'articlesList'
p222
S"[{'title': 'RATE-VISUAL-DISTORTION OPTIMIZED EXTRACTION WITH QUALITY LAYERS FOR SCALABLE CODING OF STEREO VIDEOS'}, {'title': 'Fast H.264/AVC video encoding with multiple frame references'}, {'title': 'VIDEO STREAMING OVER WIRELESS DCCP'}, {'title': 'Lossless watermarking for image authentication: A new framework and an implementation'}, {'title': 'Hierarchical representation and coding of 3D mesh geometry'}, {'title': 'Application-layer QoS fairness in wireless video scheduling'}, {'title': 'Lossless generalized-LSB data embedding'}, {'title': 'Minimum delay content adaptive video streaming o...e channels with a novel stream switching solution'}, {'title': 'Scalable multiple description video coding with flexible number of descriptions'}, {'title': 'Performance measures for video object segmentation and tracking'}, {'title': 'Discriminative lip-motion features for biometric speaker identification'}, {'title': 'Motion-compensated temporal filtering within the H.264/AVC standard'}, {'title': 'Optimal rate and input format control for content and context adaptive video streaming'}, {'title': 'Stochastic kinematic modeling and feature extraction for gait analysis'}, {'title': 'Multimodal speaker identification with audio-video processing'}, {'title': 'Hierarchical watermarking for secure image authentication with localization'}, {'title': 'Metrics for performance evaluation of video object segmentation and tracking without ground-truth'}, {'title': 'Tracking motion and intensity variations using h...esh modeling for synthetic object transfiguration'}, {'title': 'BANDWIDTH-AWARE MULTIPLE MULTICAST TREE FORMATIO...LABLE VIDEO STREAMING USING HIERARCHICAL CLUSTERS'}, {'title': '3D DISPLAY DEPENDENT QUALITY EVALUATION AND RATE ALLOCATION USING SCALABLE VIDEO CODING'}, ...]"
p223
sS'LOAD'
p224
S'<function LOAD>'
p225
sS'redirect'
p226
S'<function redirect>'
p227
sS'FIELDSET'
p228
S"<class 'gluon.html.FIELDSET'>"
p229
sS'IS_EQUAL_TO'
p230
S"<class 'gluon.validators.IS_EQUAL_TO'>"
p231
sS'embed64'
p232
S'<function embed64>'
p233
sS'IS_LIST_OF'
p234
S"<class 'gluon.validators.IS_LIST_OF'>"
p235
sS'INPUT'
p236
S"<class 'gluon.html.INPUT'>"
p237
sS'EMBED'
p238
S"<class 'gluon.html.EMBED'>"
p239
sS'_'
S'<function _>'
p240
sS'myconf'
p241
S"{'forms': {'formstyle': 'bootstrap3_inline', 'se...': {'names': 'localhost:*, 127.0.0.1:*, *:*, *'}}"
p242
sS'H2'
p243
S"<class 'gluon.html.H2'>"
p244
sS'H3'
p245
S"<class 'gluon.html.H3'>"
p246
sS'AppConfig'
p247
S'<function AppConfig>'
p248
sS'H1'
p249
S"<class 'gluon.html.H1'>"
p250
sS'H6'
p251
S"<class 'gluon.html.H6'>"
p252
sS'H4'
p253
S"<class 'gluon.html.H4'>"
p254
sS'H5'
p255
S"<class 'gluon.html.H5'>"
p256
sS'UL'
p257
S"<class 'gluon.html.UL'>"
p258
sS'length'
p259
S'1'
sS'IS_UPPER'
p260
S"<class 'gluon.validators.IS_UPPER'>"
p261
sS'xmlescape'
p262
S'<function xmlescape>'
p263
sS'IS_TIME'
p264
S"<class 'gluon.validators.IS_TIME'>"
p265
sS'OPTION'
p266
S"<class 'gluon.html.OPTION'>"
p267
sS'TITLE'
p268
S"<class 'gluon.html.TITLE'>"
p269
sS'CRYPT'
p270
S"<class 'gluon.validators.CRYPT'>"
p271
sS'IS_EMPTY_OR'
p272
S"<class 'gluon.validators.IS_EMPTY_OR'>"
p273
sS'MARKMIN'
p274
S"<class 'gluon.html.MARKMIN'>"
p275
sS'authorname'
p276
S'\'"Tekalp, AM"\''
p277
sS'article'
p278
S"{'DOI': ['10.1109/83.862644'], '_version_': 1537856509188243459, 'abstract': ['We present a two-dimensional (2-D) mesh-based mo...ect editing applications on real video sequences.'], 'address': ['[ 1 ] Siemens Corp Res, Multimedia & Video Technol Dept, Plainsboro, NJ 08536 USA', '[ 2 ] Eastman Kodak Co, Imaging Res & Adv Dev, Rochester, NY 14650 USA', '[ 3 ] Univ Rochester, Dept Elect & Comp Engn, Rochester, NY 14627 USA', '[ 4 ] Univ Rochester, Ctr Elect Imaging Syst, Rochester, NY 14627 USA', '[ 5 ] Sabanci Univ, Fac Engn Sci, TR-81474 Istanbul, '], 'authors': ['Toklu, C', 'Erdem, AT', 'Tekalp, AM'], 'id': '6e4055ab-513f-4e5a-9de3-4d4e60028b77', 'journal': ['IEEE TRANSACTIONS ON IMAGE PROCESSING'], 'keywords': ['mosaic synthesis', 'object-based video editing', 'occlusion', 'rendering', 'two-dimensional mesh tracking', 'two-dimensional augmented reality'], 'keywordsplus': ['MOTION ESTIMATION', 'TRACKING', 'SEQUENCES', 'MODELS', 'SCHEME'], 'published': ['SEP 2000'], ...}"
p279
sS'STRONG'
p280
S"<class 'gluon.html.STRONG'>"
p281
sS'COL'
p282
S"<class 'gluon.html.COL'>"
p283
sS'service'
p284
S'<gluon.tools.Service object>'
p285
sS'SCRIPT'
p286
S"<class 'gluon.html.SCRIPT'>"
p287
sS'TABLE'
p288
S"<class 'gluon.html.TABLE'>"
p289
sS'IS_IPV4'
p290
S"<class 'gluon.validators.IS_IPV4'>"
p291
sS'IS_LENGTH'
p292
S"<class 'gluon.validators.IS_LENGTH'>"
p293
sS'IS_IPV6'
p294
S"<class 'gluon.validators.IS_IPV6'>"
p295
sS'XML'
p296
S"<class 'gluon.html.XML'>"
p297
sS'B'
S"<class 'gluon.html.B'>"
p298
sS'IMG'
p299
S"<class 'gluon.html.IMG'>"
p300
sS'SQLTABLE'
p301
S"<class 'gluon.sqlhtml.SQLTABLE'>"
p302
sS'IS_MATCH'
p303
S"<class 'gluon.validators.IS_MATCH'>"
p304
sS'IS_ALPHANUMERIC'
p305
S"<class 'gluon.validators.IS_ALPHANUMERIC'>"
p306
sS'urlname'
p307
S"'q=%22image+processing%22&fq=authors%3A%22Tekalp%2C+AM%22'"
p308
sS'SPAN'
p309
S"<class 'gluon.html.SPAN'>"
p310
sS'keyword'
p311
S"'two-dimensional augmented reality'"
p312
sS'IS_IPADDRESS'
p313
S"<class 'gluon.validators.IS_IPADDRESS'>"
p314
sS'IS_SLUG'
p315
S"<class 'gluon.validators.IS_SLUG'>"
p316
sS'url'
p317
S"'10.1109%283.862644'"
p318
sS'BEAUTIFY'
p319
S"<class 'gluon.html.BEAUTIFY'>"
p320
sS'META'
p321
S"<class 'gluon.html.META'>"
p322
sS'facetListyears'
p323
S"[['2004', '2005', '2008', '2006', '2009', '2006', '2000', '2001', '2003', '2006', '2003', '2005', '2004', '2002', '2003', '2007', '2002', '2007', '1996', '2000'], [3, 3, 3, 2, 2, 2, 1, 1, 1, 1, 1, 1, 1, 1, 1, 1, 1, 1, 1, 1]]"
p324
sS'BUTTON'
p325
S"<class 'gluon.html.BUTTON'>"
p326
sS'IS_DATE'
p327
S"<class 'gluon.validators.IS_DATE'>"
p328
sS'IS_EMAIL'
p329
S"<class 'gluon.validators.IS_EMAIL'>"
p330
sS'IS_NOT_EMPTY'
p331
S"<class 'gluon.validators.IS_NOT_EMPTY'>"
p332
sS'IS_FLOAT_IN_RANGE'
p333
S"<class 'gluon.validators.IS_FLOAT_IN_RANGE'>"
p334
sS'TBODY'
p335
S"<class 'gluon.html.TBODY'>"
p336
sS'CAT'
p337
S"<class 'gluon.html.CAT'>"
p338
sS'Field'
p339
S"<class 'pydal.objects.Field'>"
p340
sS'IS_LIST_OF_EMAILS'
p341
S"<class 'gluon.validators.IS_LIST_OF_EMAILS'>"
p342
sS'DIV'
p343
S"<class 'gluon.html.DIV'>"
p344
sS'LEGEND'
p345
S"<class 'gluon.html.LEGEND'>"
p346
sS'COLGROUP'
p347
S"<class 'gluon.html.COLGROUP'>"
p348
sS'DAL'
p349
S"<class 'pydal.base.DAL'>"
p350
sS'ASSIGNJS'
p351
S'<function ASSIGNJS>'
p352
sS'TR'
p353
S"<class 'gluon.html.TR'>"
p354
sS'LI'
p355
S"<class 'gluon.html.LI'>"
p356
sS'matches'
p357
S'29'
p358
sS'TH'
p359
S"<class 'gluon.html.TH'>"
p360
sS'TD'
p361
S"<class 'gluon.html.TD'>"
p362
sS'PluginManager'
p363
S"<class 'gluon.tools.PluginManager'>"
p364
sS'IS_URL'
p365
S"<class 'gluon.validators.IS_URL'>"
p366
sS'A'
S"<class 'gluon.html.A'>"
p367
sS'HEAD'
p368
S"<class 'gluon.html.HEAD'>"
p369
sS'IS_DATETIME_IN_RANGE'
p370
S"<class 'gluon.validators.IS_DATETIME_IN_RANGE'>"
p371
sS'FORM'
p372
S"<class 'gluon.html.FORM'>"
p373
sS'I'
S"<class 'gluon.html.I'>"
p374
sS'athname'
p375
S'None'
p376
sS'IS_NOT_IN_DB'
p377
S"<class 'gluon.validators.IS_NOT_IN_DB'>"
p378
sg116
S"<Storage {'body': <cStringIO.StringO object at 0... 0x7f19ac0286e0>, 'view': 'default/author.html'}>"
p379
sS'THEAD'
p380
S"<class 'gluon.html.THEAD'>"
p381
sS'ANY_OF'
p382
S"<class 'gluon.validators.ANY_OF'>"
p383
sS'IS_NULL_OR'
p384
S"<class 'gluon.validators.IS_EMPTY_OR'>"
p385
sS'i'
S'19'
p386
sS'__name__'
p387
S"'__restricted__'"
p388
sS'author'
p389
S"'Tekalp, AM'"
p390
sg56
S"<Storage {'_vars': None, 'function': 'author', '...ome/damla/web2py/applications/webofsciencenew/'}>"
p391
sS'IS_EXPR'
p392
S"<class 'gluon.validators.IS_EXPR'>"
p393
sS'T'
S'<gluon.languages.translator object>'
p394
sS'IS_IN_SET'
p395
S"<class 'gluon.validators.IS_IN_SET'>"
p396
sS'IS_UPLOAD_FILENAME'
p397
S"<class 'gluon.validators.IS_UPLOAD_FILENAME'>"
p398
sS'TT'
p399
S"<class 'gluon.html.TT'>"
p400
sS'IS_DECIMAL_IN_RANGE'
p401
S"<class 'gluon.validators.IS_DECIMAL_IN_RANGE'>"
p402
sssS'traceback'
p403
S'Traceback (most recent call last):\n  File "/home/damla/web2py/gluon/restricted.py", line 227, in restricted\n    exec ccode in environment\n  File "/home/damla/web2py/applications/webofsciencenew/views/default/author.html", line 129, in <module>\n    subtitle: {\nNameError: name \'freq\' is not defined\n'
p404
s.