(dp1
S'output'
p2
S"<type 'exceptions.NameError'> name 'authorname' is not defined"
p3
sS'layer'
p4
S'/home/damla/web2py/applications/webofsciencenew/views/default/index.html'
p5
sS'code'
p6
S'response.write(\'<!DOCTYPE html>\\n<html lang="en">\\n\\t<head>\\n\\t\\t<meta http-equiv="content-type" content="text/html; charset=UTF-8">\\n\\t\\t<meta charset="utf-8">\\n\\t\\t<title>Web Of Science</title>\\n\\t\\t<meta name="generator" content="Bootply" />\\n\\t\\t<meta name="viewport" content="width=device-width, initial-scale=1, maximum-scale=1"/>\\n\\t\\t<link rel="stylesheet" href="\', escape=False)\nresponse.write(URL(\'static\',\'/css/bootstrap.min.css\'))\nresponse.write(\'" />\\n\\t\\t<!--[if lt IE 9]>\\n\\t\\t\\t<script src="//html5shim.googlecode.com/svn/trunk/html5.js"></script>\\n\\t\\t<![endif]-->\\n\\t\\t<link rel="stylesheet" href="\', escape=False)\nresponse.write(URL(\'static\',\'/css/styles.css\'))\nresponse.write(\'"  />\\n\\t\\t<script type="text/javascript" src="\', escape=False)\nresponse.write(URL(\'static\',\'/js/json2.min.js\'))\nresponse.write(\'"></script>\\n\\t\\t<script type="text/javascript" src="\', escape=False)\nresponse.write(URL(\'static\',\'/js/AC_OETags.min.js\'))\nresponse.write(\'"></script>\\n\\t\\t<script type="text/javascript" src="\', escape=False)\nresponse.write(URL(\'static\',\'/js/cytoscapeweb.min.js\'))\nresponse.write(\'"></script>\\n\\t\\t<script src="\', escape=False)\nresponse.write(URL(\'static\',\'/js/jquery.min.js\'))\nresponse.write(\'" type="text/javascript"></script>\\n\\t\\t<script src="\', escape=False)\nresponse.write(URL(\'static\',\'/js/bootstrap.min.js\'))\nresponse.write(\'" type="text/javascript"></script>\\n\\t\\t<!--<script src="http://maps.googleapis.com/maps/api/js?sensor=false&extension=.js&output=embed"></script>-->\\n\\t\\t<script src="\', escape=False)\nresponse.write(URL(\'static\',\'/js/scripts.js\'))\nresponse.write(\'" type="text/javascript"></script>\\n\\t\\t<!--graph content-->\\n\\n\\n\\t\\t<script type="text/javascript">\\n            window.onload = function() {\\n\\t\\t\\t\\t\\t\\t\\tvar numberofpublications = []\\n\\t\\t\\t\\t\\t\\t\\tvar nameofauthors = []\\n\\t\\t\\t\\t\\t\\t\\t//console.log(\\\'test\\\')\\n\\t\\t\\t\\t\\t\\t\\t$(\\\'#publications\\\').each(function(){\\n\\t\\t\\t\\t\\t\\t\\t\\t\\tnumberofpublications.push($(this).text())\\n\\t\\t\\t\\t\\t\\t\\t})\\n\\t\\t\\t\\t\\t\\t\\tconsole.log(numberofpublications);\\n\\t\\t\\t\\t\\t\\t\\t/////////////////\\n\\t\\t\\t\\t\\t\\t\\t$(\\\'#author >\\\').each(function(){\\n\\t\\t\\t\\t\\t\\t\\t\\t\\tnameofauthors.push($(this).text())\\n\\t\\t\\t\\t\\t\\t\\t})\\n\\t\\t\\t\\t\\t\\t\\tconsole.log(nameofauthors);\\n                // id of Cytoscape Web container div\\n                var div_id = "cytoscapeweb";\\n\\n                // NOTE: - the attributes on nodes and edges\\n                //       - it also has directed edges, which will automatically display edge arrows\\n\\t\\t\\t\\t\\t\\t\\t\\t/*\\tdata = {\\n\\t\\t\\t\\t\\t\\t\\t\\t\\t\\t\\tnodes: [ { id: "1", label: String(nameofauthors[0]), foo: "Is this the real life?" },\\n\\t\\t\\t\\t\\t\\t\\t\\t\\t\\t\\t\\t\\t\\t\\t{ id: "2", label: String(nameofauthors[0]), foo: "Is this the real life?" },\\n\\t\\t\\t\\t\\t\\t\\t\\t\\t\\t\\t],\\n\\t\\t\\t\\t\\t\\t\\t\\t\\t\\t\\tedges: [ { id: "2to1", target: "2", source: "1", label: "2 to 1", bar: "Caught in a landslide..." }\\n\\t\\t\\t\\t\\t\\t\\t\\t\\t\\t\\t]\\n\\t\\t\\t\\t\\t\\t\\t\\t\\t}*/\\n\\t\\t\\t\\t\\t\\t\\t\\t\\tvar myJsonString = JSON.stringify(nameofauthors);\\n\\t\\t\\t\\t\\t\\t\\t\\t\\tconsole.log(myJsonString);\\n\\t\\t\\t\\t\\t\\t\\t\\tdata = {\\n\\t\\t\\t\\t\\t\\t\\t\\t\\t\\tnodes: [ { id: "1", label: String(nameofauthors[0]), foo: "Is this the real life?" }\\n\\n\\t\\t\\t\\t\\t\\t\\t\\t\\t\\t],\\n\\t\\t\\t\\t\\t\\t\\t\\t\\t\\tedges: [ { id: "2to1", target: "2", source: "1", label: "2 to 1", bar: "Caught in a landslide..." }\\n\\t\\t\\t\\t\\t\\t\\t\\t\\t\\t]\\n\\t\\t\\t\\t\\t\\t\\t\\t}\\n\\n\\n\\t\\t\\t\\t\\t\\t\\t\\tvar nodes = new Array();\\n\\n\\t\\t\\t\\t\\t\\t\\t\\t    for (var i=0;i < nameofauthors.length;i++){\\n\\t\\t\\t\\t\\t\\t\\t\\t        nodes[i] = {\\n\\t\\t\\t\\t\\t\\t\\t\\t            id:  i,\\n\\t\\t\\t\\t\\t\\t\\t\\t            label: nameofauthors[i],\\n\\n\\t\\t\\t\\t\\t\\t\\t\\t        };\\n\\t\\t\\t\\t\\t\\t\\t\\t    }\\n\\n\\t\\t\\t\\t\\t\\t\\t\\t    var stringJSON=JSON.stringify(nodes);\\n\\t\\t\\t\\t\\t\\t\\t\\t    //alert(stringJSON);\\n\\n\\n\\n\\t\\t\\t\\t\\t\\t\\t\\tvar network_json = {\\n\\t\\t\\t\\t\\t\\t\\t\\t\\tdataSchema: {\\n                            nodes: [ { name: "label", type: "string" },\\n                                     { name: "foo", type: "string" }\\n                                ],\\n                            edges: [ { name: "label", type: "string" },\\n                                     { name: "bar", type: "string" }\\n                            ]\\n                        },\\n                        // NOTE the custom attributes on nodes and edges\\n                        data: data\\n                };\\n\\n                function rand_color() {\\n                    function rand_channel() {\\n                        return Math.round( Math.random() * 255 );\\n                    }\\n\\n                    function hex_string(num) {\\n                        var ret = num.toString(16);\\n\\n                        if (ret.length < 2) {\\n                            return "0" + ret;\\n                        } else {\\n                            return ret;\\n                        }\\n                    }\\n\\n                    var r = rand_channel();\\n                    var g = rand_channel();\\n                    var b = rand_channel();\\n\\n                    return "#" + hex_string(r) + hex_string(g) + hex_string(b);\\n                }\\n\\n                // visual style we will use\\n                var visual_style = {\\n                    global: {\\n                        backgroundColor: "#ABCFD6"\\n                    },\\n                    nodes: {\\n                        shape: "CIRCLE",\\n                        borderWidth: 3,\\n                        borderColor: "#ffffff",\\n                        size: {\\n                            defaultValue: 25,\\n                            continuousMapper: { attrName: "weight", minValue: 25, maxValue: 75 }\\n                        },\\n                        color: {\\n                            discreteMapper: {\\n                                attrName: "id",\\n                                entries: [\\n                                    { attrValue: 1, value: "#0B94B1" },\\n                                    { attrValue: 2, value: "#9A0B0B" },\\n                                    { attrValue: 3, value: "#dddd00" }\\n                                ]\\n                            }\\n                        },\\n                        labelHorizontalAnchor: "center"\\n                    },\\n                    edges: {\\n                        width: 3,\\n                        color: "#0B94B1"\\n                    }\\n                };\\n\\n                // initialization options\\n                var options = {\\n                    swfPath: "\', escape=False)\nresponse.write(URL(\'static\',\'/swf/CytoscapeWeb\'))\nresponse.write(\'",\\n                    flashInstallerPath: "\', escape=False)\nresponse.write(URL(\'static\',\'/swf/playerProductInstall\'))\nresponse.write(\'"\\n                };\\n\\n                var vis = new org.cytoscapeweb.Visualization(div_id, options);\\n\\n                vis.ready(function() {\\n                    // set the style programmatically\\n                    document.getElementById("color").onclick = function(){\\n                        visual_style.global.backgroundColor = rand_color();\\n                        vis.visualStyle(visual_style);\\n                    };\\n                });\\n\\n                var draw_options = {\\n\\n\\t\\t\\t\\t\\t\\t\\t\\t\\t\\t// your data goes here\\n\\t\\t\\t\\t\\t\\t\\t\\t\\t\\t/*$.ajax({\\n            type: "GET",\\n            url: "data.json",\\n            dataType: "json",\\n                        error: function(){\\n                alert("Error loading file");\\n            },\\nsuccess: function(data){\\n}\\n});\\nvar netwdata = data.elements[0];\\nvis.draw({ network: netwdata });*/\\n\\n                    network: network_json,\\n\\n                    // show edge labels too\\n                    edgeLabelsVisible: true,\\n\\n                    // let\\\'s try another layout\\n                    layout: "Tree",\\n\\n                    // set the style at initialisation\\n                    visualStyle: visual_style,\\n\\n                    // hide pan zoom\\n                    panZoomControlVisible: true\\n                };\\n\\n                vis.draw(draw_options);\\n            };\\n        </script>\\n\\n        <style>\\n            * { margin: 0; padding: 0; font-family: Helvetica, Arial, Verdana, sans-serif; }\\n            html, body { height: 100%; width: 100%; padding: 0; margin: 0; background-color: #f0f0f0; }\\n            body { line-height: 1.5; color: #000000; font-size: 14px; }\\n            /* The Cytoscape Web container must have its dimensions set. */\\n            #cytoscapeweb { width: 100%; height: 80%; }\\n            #note { width: 100%; text-align: center; padding-top: 1em; }\\n            .link { text-decoration: underline; color: #0b94b1; cursor: pointer; }\\n        </style>\\n\\t\\t<!--endof graph content-->\\n\\t</head>\\n\\t<body>\\n<!-- begin template -->\\n<div class="navbar navbar-custom navbar-fixed-top">\\n <div class="navbar-header"><a class="navbar-brand" href="#">Brand</a>\\n      <a class="navbar-toggle" data-toggle="collapse" data-target=".navbar-collapse">\\n        <span class="icon-bar"></span>\\n        <span class="icon-bar"></span>\\n        <span class="icon-bar"></span>\\n      </a>\\n    </div>\\n    <div class="navbar-collapse collapse">\\n      <ul class="nav navbar-nav">\\n        <li class="active"><a href="#">Home</a></li>\\n        <li><a href="#">Link</a></li>\\n        <li><a href="#">Link</a></li>\\n        <li>&nbsp;</li>\\n      </ul>\\n      <form class="navbar-form">\\n        <div class="form-group" style="display:inline;">\\n          <div class="input-group">\\n            <div class="input-group-btn">\\n              <button type="button" class="btn btn-default dropdown-toggle" data-toggle="dropdown"><span class="glyphicon glyphicon-chevron-down"></span></button>\\n              <ul class="dropdown-menu">\\n                <li><a href="#">Category 1</a></li>\\n                <li><a href="#">Category 2</a></li>\\n                <li><a href="#">Category 3</a></li>\\n                <li><a href="#">Category 4</a></li>\\n                <li><a href="#">Category 5</a></li>\\n              </ul>\\n            </div>\\n            <input type="text" class="form-control" id="textinput"placeholder="Enter a Keyword" name="inputkeyword">\\n            <button class="btn btn-default" type="submit"  method="post"><span class="glyphicon glyphicon-search"></span> </button>\\n          </div>\\n        </div>\\n      </form>\\n    </div>\\n</div>\\n\\n<div id="map-canvas">\\n\\t<embed src="\', escape=False)\nresponse.write(URL(\'static\',\'/swf/CytoscapeWeb.swf\'))\nresponse.write(\'" width="100%" height="100%" align="middle" id="cytoscapeWeb1" quality="high" bgcolor="#ffffff" name="cytoscapeWeb1" allowscriptaccess="always" pluginspage="http://www.adobe.com/go/getflashplayer" wmode="opaque" flashvars="id=cytoscapeWeb1" type="application/x-shockwave-flash">\\n</div>\\n<div class="container-fluid" id="main">\\n  <div class="row">\\n  \\t<div class="col-xs-8" id="left">\\n      \', escape=False)\nresponse.write(\'\\n\', escape=False)\nif keyword:\n    response.write(\'\\n<div class="panel panel-default">\\n  <div class="panel-heading"><p>Results for \\\' <b id="keyword">\', escape=False)\n    response.write(keyword)\n    response.write("</b> \': (", escape=False)\n    response.write(length)\n    response.write(\' matches found!)</p></div>\\n</div>\\n<hr>\\n<div class="table-responsive">\\n  <table class="table">\\n    <thead>\\n      <tr>\\n        <th>#</th>\\n        <th>Author</th>\\n        <th>Number of Publications</th>\\n\\n      </tr>\\n    </thead>\\n    <tbody>\\n      \', escape=False)\n    for i in range(len(facetList[0])):\n        response.write(\'\\n      <tr>\\n\\n        <td>\', escape=False)\n        response.write(i+1)\n        response.write(\'</td>\\n\\n        <td id="author" ><a href="author/\', escape=False)\n        response.write(keyword)\n        response.write(\'/\', escape=False)\n        response.write(facetList[0][i])\n        response.write(\'/">\', escape=False)\n        response.write(facetList[0][i])\n        response.write(\'<a>\\n          \', escape=False)\n        for article in articles:\n            response.write(\'\\n\\n            \', escape=False)\n            for author in article[\'authors\']:\n                response.write(\'\\n\\n                \', escape=False)\n                if author in authorname:\n                    response.write(\'\\n                  \', escape=False)\n                    index=article[\'authors\'].index(author)\n                    response.write(\'\\n                \', escape=False)\n                else:\n                    continue\n                response.write(\'\\n            \', escape=False)\n                pass\n            response.write(\'\\n            \', escape=False)\n            if \'revisedAddress\' in article :\n                response.write(\'\\n              \', escape=False)\n                if len(article[\'revisedAddress\'])>= index+1:\n                    response.write(\'\\n                \', escape=False)\n                    response.write(article[\'revisedAddress\'][index][4:-4])\n                    response.write(\'\\n                \', escape=False)\n                    break\n                response.write(\'\\n              \', escape=False)\n            else:\n                response.write(\'\\n                \', escape=False)\n                continue\n            response.write(\'\\n            \', escape=False)\n        else:\n            response.write(\'\\n                \', escape=False)\n            for address in article[\'address\']:\n                response.write(\'\\n\\n                  \', escape=False)\n                response.write(address[5:-2])\n                response.write(\'\\n\\n                \', escape=False)\n                pass\n            response.write(\'\\n            \', escape=False)\n            pass\n        response.write(\'\\n          \', escape=False)\n        pass\n    response.write(\'</td>\\n        <td id="publications">\', escape=False)\n    response.write(facetList[1][i])\n    response.write(\'</td>\\n\\n\\n\\n      </tr>\\n      \', escape=False)\n    pass\nresponse.write(\'\\n    </tbody>\\n  </table>\\n  </div>\\n\', escape=False)\npass\nresponse.write(\'\\n\\n<div class="table-responsive">\\n  <table class="table">\\n    <thead>\\n      <tr>\\n        <th>#</th>\\n        <th>Years</th>\\n        <th>Number of Publications</th>\\n\\n      </tr>\\n    </thead>\\n    <tbody>\\n      \', escape=False)\nfor i in range(len(facetListyears[0])):\n    response.write(\'\\n      <tr>\\n\\n        <td>\', escape=False)\n    response.write(i+1)\n    response.write(\'</td>\\n\\n        <td>\', escape=False)\n    response.write(facetListyears[0][i])\n    response.write(\'<a></td>\\n        <td>\', escape=False)\n    response.write(facetListyears[1][i])\n    response.write(\'</td>\\n\\n\\n\\n      </tr>\\n      \', escape=False)\n    pass\nresponse.write(\'\\n    </tbody>\\n  </table>\\n  </div>\\n\', escape=False)\nresponse.write(\'\\n\\t\\t</div>\\n  </div>\\n</div>\\n<!-- end template -->\\n\\n\\t<!-- script references -->\\n\\n\\t</body>\\n</html>\\n\', escape=False)'
p7
sS'snapshot'
p8
(dp9
S'exception'
p10
(dp11
S'__hash__'
p12
S"<method-wrapper '__hash__' of exceptions.NameError object>"
p13
sS'__setattr__'
p14
S"<method-wrapper '__setattr__' of exceptions.NameError object>"
p15
sS'__reduce_ex__'
p16
S'<built-in method __reduce_ex__ of exceptions.NameError object>'
p17
sS'__getslice__'
p18
S"<method-wrapper '__getslice__' of exceptions.NameError object>"
p19
sS'__getitem__'
p20
S"<method-wrapper '__getitem__' of exceptions.NameError object>"
p21
sS'__setstate__'
p22
S'<built-in method __setstate__ of exceptions.NameError object>'
p23
sS'args'
p24
S'("name \'authorname\' is not defined",)'
p25
sS'__reduce__'
p26
S'<built-in method __reduce__ of exceptions.NameError object>'
p27
sS'__str__'
p28
S"<method-wrapper '__str__' of exceptions.NameError object>"
p29
sS'__format__'
p30
S'<built-in method __format__ of exceptions.NameError object>'
p31
sS'__getattribute__'
p32
S"<method-wrapper '__getattribute__' of exceptions.NameError object>"
p33
sS'__class__'
p34
S"<type 'exceptions.NameError'>"
p35
sS'__unicode__'
p36
S'<built-in method __unicode__ of exceptions.NameError object>'
p37
sS'__delattr__'
p38
S"<method-wrapper '__delattr__' of exceptions.NameError object>"
p39
sS'__subclasshook__'
p40
S'<built-in method __subclasshook__ of type object>'
p41
sS'__repr__'
p42
S"<method-wrapper '__repr__' of exceptions.NameError object>"
p43
sS'__dict__'
p44
S'{}'
p45
sS'__sizeof__'
p46
S'<built-in method __sizeof__ of exceptions.NameError object>'
p47
sS'__doc__'
p48
S"'Name not found globally.'"
p49
sS'__init__'
p50
S"<method-wrapper '__init__' of exceptions.NameError object>"
p51
sS'__new__'
p52
S'<built-in method __new__ of type object>'
p53
ssS'evalue'
p54
S"name 'authorname' is not defined"
p55
sS'request'
p56
cgluon.html
XML_unpickle
p57
(S's\xf1N\x00\x00<div><table><tr><td style="font-weight:bold;vertical-align:top;">ajax</td><td style="vertical-align:top;">:</td><td><div>False</div></td></tr><tr><td style="font-weight:bold;vertical-align:top;">application</td><td style="vertical-align:top;">:</td><td><div>webofsciencenew</div></td></tr><tr><td style="font-weight:bold;vertical-align:top;">args</td><td style="vertical-align:top;">:</td><td><div><table></table></div></td></tr><tr><td style="font-weight:bold;vertical-align:top;">cid</td><td style="vertical-align:top;">:</td><td><div>None</div></td></tr><tr><td style="font-weight:bold;vertical-align:top;">client</td><td style="vertical-align:top;">:</td><td><div>127.0.0.1</div></td></tr><tr><td style="font-weight:bold;vertical-align:top;">controller</td><td style="vertical-align:top;">:</td><td><div>default</div></td></tr><tr><td style="font-weight:bold;vertical-align:top;">cookies</td><td style="vertical-align:top;">:</td><td><div><table><tr><td style="font-weight:bold;vertical-align:top;">session_id_welcome</td><td style="vertical-align:top;">:</td><td><div>127.0.0.1-212e8c58-cb80-4b05-9c5b-faf1ce937477<table><tr><td style="font-weight:bold;vertical-align:top;">comment</td><td style="vertical-align:top;">:</td><td><div></div></td></tr><tr><td style="font-weight:bold;vertical-align:top;">domain</td><td style="vertical-align:top;">:</td><td><div></div></td></tr><tr><td style="font-weight:bold;vertical-align:top;">expires</td><td style="vertical-align:top;">:</td><td><div></div></td></tr><tr><td style="font-weight:bold;vertical-align:top;">httponly</td><td style="vertical-align:top;">:</td><td><div></div></td></tr><tr><td style="font-weight:bold;vertical-align:top;">max-age</td><td style="vertical-align:top;">:</td><td><div></div></td></tr><tr><td style="font-weight:bold;vertical-align:top;">path</td><td style="vertical-align:top;">:</td><td><div></div></td></tr><tr><td style="font-weight:bold;vertical-align:top;">secure</td><td style="vertical-align:top;">:</td><td><div></div></td></tr><tr><td style="font-weight:bold;vertical-align:top;">version</td><td style="vertical-align:top;">:</td><td><div></div></td></tr></table></div></td></tr></table></div></td></tr><tr><td style="font-weight:bold;vertical-align:top;">env</td><td style="vertical-align:top;">:</td><td><div><table><tr><td style="font-weight:bold;vertical-align:top;">HTTP_ACCEPT</td><td style="vertical-align:top;">:</td><td><div>text/html,application/xhtml+xml,application/xml;q=0.9,image/webp,*/*;q=0.8</div></td></tr><tr><td style="font-weight:bold;vertical-align:top;">HTTP_ACCEPT_ENCODING</td><td style="vertical-align:top;">:</td><td><div>gzip, deflate, sdch</div></td></tr><tr><td style="font-weight:bold;vertical-align:top;">HTTP_ACCEPT_LANGUAGE</td><td style="vertical-align:top;">:</td><td><div>tr-TR,tr;q=0.8,en-US;q=0.6,en;q=0.4</div></td></tr><tr><td style="font-weight:bold;vertical-align:top;">HTTP_CONNECTION</td><td style="vertical-align:top;">:</td><td><div>keep-alive</div></td></tr><tr><td style="font-weight:bold;vertical-align:top;">HTTP_COOKIE</td><td style="vertical-align:top;">:</td><td><div>_ga=GA1.1.1065602752.1463081039; session_id_welcome=127.0.0.1-212e8c58-cb80-4b05-9c5b-faf1ce937477</div></td></tr><tr><td style="font-weight:bold;vertical-align:top;">HTTP_HOST</td><td style="vertical-align:top;">:</td><td><div>127.0.0.1:8000</div></td></tr><tr><td style="font-weight:bold;vertical-align:top;">HTTP_UPGRADE_INSECURE_REQUESTS</td><td style="vertical-align:top;">:</td><td><div>1</div></td></tr><tr><td style="font-weight:bold;vertical-align:top;">HTTP_USER_AGENT</td><td style="vertical-align:top;">:</td><td><div>Mozilla/5.0 (X11; Linux x86_64) AppleWebKit/537.36 (KHTML, like Gecko) Chrome/51.0.2704.106 Safari/537.36</div></td></tr><tr><td style="font-weight:bold;vertical-align:top;">PATH_INFO</td><td style="vertical-align:top;">:</td><td><div>/webofsciencenew</div></td></tr><tr><td style="font-weight:bold;vertical-align:top;">QUERY_STRING</td><td style="vertical-align:top;">:</td><td><div></div></td></tr><tr><td style="font-weight:bold;vertical-align:top;">REMOTE_ADDR</td><td style="vertical-align:top;">:</td><td><div>127.0.0.1</div></td></tr><tr><td style="font-weight:bold;vertical-align:top;">REMOTE_PORT</td><td style="vertical-align:top;">:</td><td><div>43973</div></td></tr><tr><td style="font-weight:bold;vertical-align:top;">REQUEST_METHOD</td><td style="vertical-align:top;">:</td><td><div>GET</div></td></tr><tr><td style="font-weight:bold;vertical-align:top;">SCRIPT_NAME</td><td style="vertical-align:top;">:</td><td><div></div></td></tr><tr><td style="font-weight:bold;vertical-align:top;">SERVER_NAME</td><td style="vertical-align:top;">:</td><td><div>damla</div></td></tr><tr><td style="font-weight:bold;vertical-align:top;">SERVER_PORT</td><td style="vertical-align:top;">:</td><td><div>8000</div></td></tr><tr><td style="font-weight:bold;vertical-align:top;">SERVER_PROTOCOL</td><td style="vertical-align:top;">:</td><td><div>HTTP/1.1</div></td></tr><tr><td style="font-weight:bold;vertical-align:top;">SERVER_SOFTWARE</td><td style="vertical-align:top;">:</td><td><div>Rocket 1.2.6</div></td></tr><tr><td style="font-weight:bold;vertical-align:top;">app_folders</td><td style="vertical-align:top;">:</td><td><div>set([&#x27;/home/damla/web2py/applications/welcome/&#x27;, &#x27;/home/damla/web2py/applications/webofsciencenew/&#x27;])</div></td></tr><tr><td style="font-weight:bold;vertical-align:top;">applications_parent</td><td style="vertical-align:top;">:</td><td><div>/home/damla/web2py</div></td></tr><tr><td style="font-weight:bold;vertical-align:top;">cmd_args</td><td style="vertical-align:top;">:</td><td><div><table></table></div></td></tr><tr><td style="font-weight:bold;vertical-align:top;">cmd_options</td><td style="vertical-align:top;">:</td><td><div>&lt;Values at 0x7f0ea0d3f3b0: {&#x27;verbose&#x27;: False, &#x27;ip&#x27;: &#x27;127.0.0.1&#x27;, &#x27;debuglevel&#x27;: 30, &#x27;with_scheduler&#x27;: False, &#x27;shutdown_timeout&#x27;: 5, &#x27;taskbar&#x27;: False, &#x27;with_coverage&#x27;: False, &#x27;pid_filename&#x27;: &#x27;httpserver.pid&#x27;, &#x27;maxthreads&#x27;: None, &#x27;softcron&#x27;: False, &#x27;server_name&#x27;: &#x27;damla&#x27;, &#x27;bpython&#x27;: False, &#x27;nogui&#x27;: False, &#x27;port&#x27;: 8000, &#x27;print_errors&#x27;: False, &#x27;extcron&#x27;: False, &#x27;runcron&#x27;: False, &#x27;run_system_tests&#x27;: False, &#x27;test&#x27;: None, &#x27;folder&#x27;: &#x27;/home/damla/web2py&#x27;, &#x27;config&#x27;: &#x27;&#x27;, &#x27;minthreads&#x27;: None, &#x27;shell&#x27;: None, &#x27;run&#x27;: &#x27;&#x27;, &#x27;log_filename&#x27;: &#x27;httpserver.log&#x27;, &#x27;profiler_dir&#x27;: None, &#x27;args&#x27;: [&#x27;&#x27;], &#x27;socket_timeout&#x27;: 5, &#x27;ssl_ca_certificate&#x27;: None, &#x27;scheduler&#x27;: None, &#x27;interfaces&#x27;: None, &#x27;ssl_private_key&#x27;: &#x27;&#x27;, &#x27;gae&#x27;: None, &#x27;password&#x27;: &#x27;******&#x27;, &#x27;request_queue_size&#x27;: 5, &#x27;ssl_certificate&#x27;: &#x27;&#x27;, &#x27;cronjob&#x27;: False, &#x27;numthreads&#x27;: None, &#x27;quiet&#x27;: False, &#x27;import_models&#x27;: False, &#x27;timeout&#x27;: 10, &#x27;plain&#x27;: False, &#x27;nobanner&#x27;: False}&gt;</div></td></tr><tr><td style="font-weight:bold;vertical-align:top;">db_sessions</td><td style="vertical-align:top;">:</td><td><div>set([])</div></td></tr><tr><td style="font-weight:bold;vertical-align:top;">debugging</td><td style="vertical-align:top;">:</td><td><div>False</div></td></tr><tr><td style="font-weight:bold;vertical-align:top;">gluon_parent</td><td style="vertical-align:top;">:</td><td><div>/home/damla/web2py</div></td></tr><tr><td style="font-weight:bold;vertical-align:top;">http_accept</td><td style="vertical-align:top;">:</td><td><div>text/html,application/xhtml+xml,application/xml;q=0.9,image/webp,*/*;q=0.8</div></td></tr><tr><td style="font-weight:bold;vertical-align:top;">http_accept_encoding</td><td style="vertical-align:top;">:</td><td><div>gzip, deflate, sdch</div></td></tr><tr><td style="font-weight:bold;vertical-align:top;">http_accept_language</td><td style="vertical-align:top;">:</td><td><div>tr-TR,tr;q=0.8,en-US;q=0.6,en;q=0.4</div></td></tr><tr><td style="font-weight:bold;vertical-align:top;">http_connection</td><td style="vertical-align:top;">:</td><td><div>keep-alive</div></td></tr><tr><td style="font-weight:bold;vertical-align:top;">http_cookie</td><td style="vertical-align:top;">:</td><td><div>_ga=GA1.1.1065602752.1463081039; session_id_welcome=127.0.0.1-212e8c58-cb80-4b05-9c5b-faf1ce937477</div></td></tr><tr><td style="font-weight:bold;vertical-align:top;">http_host</td><td style="vertical-align:top;">:</td><td><div>127.0.0.1:8000</div></td></tr><tr><td style="font-weight:bold;vertical-align:top;">http_upgrade_insecure_requests</td><td style="vertical-align:top;">:</td><td><div>1</div></td></tr><tr><td style="font-weight:bold;vertical-align:top;">http_user_agent</td><td style="vertical-align:top;">:</td><td><div>Mozilla/5.0 (X11; Linux x86_64) AppleWebKit/537.36 (KHTML, like Gecko) Chrome/51.0.2704.106 Safari/537.36</div></td></tr><tr><td style="font-weight:bold;vertical-align:top;">is_jython</td><td style="vertical-align:top;">:</td><td><div>False</div></td></tr><tr><td style="font-weight:bold;vertical-align:top;">is_pypy</td><td style="vertical-align:top;">:</td><td><div>False</div></td></tr><tr><td style="font-weight:bold;vertical-align:top;">is_source</td><td style="vertical-align:top;">:</td><td><div>True</div></td></tr><tr><td style="font-weight:bold;vertical-align:top;">local_hosts</td><td style="vertical-align:top;">:</td><td><div><table><tr><td><div>damla</div></td></tr><tr><td><div>::1</div></td></tr><tr><td><div>127.0.1.1</div></td></tr><tr><td><div>::ffff:127.0.0.1</div></td></tr><tr><td><div>127.0.0.1</div></td></tr></table></div></td></tr><tr><td style="font-weight:bold;vertical-align:top;">path_info</td><td style="vertical-align:top;">:</td><td><div>/webofsciencenew</div></td></tr><tr><td style="font-weight:bold;vertical-align:top;">query_string</td><td style="vertical-align:top;">:</td><td><div></div></td></tr><tr><td style="font-weight:bold;vertical-align:top;">remote_addr</td><td style="vertical-align:top;">:</td><td><div>127.0.0.1</div></td></tr><tr><td style="font-weight:bold;vertical-align:top;">remote_port</td><td style="vertical-align:top;">:</td><td><div>43973</div></td></tr><tr><td style="font-weight:bold;vertical-align:top;">request_method</td><td style="vertical-align:top;">:</td><td><div>GET</div></td></tr><tr><td style="font-weight:bold;vertical-align:top;">request_uri</td><td style="vertical-align:top;">:</td><td><div>/webofsciencenew</div></td></tr><tr><td style="font-weight:bold;vertical-align:top;">script_name</td><td style="vertical-align:top;">:</td><td><div></div></td></tr><tr><td style="font-weight:bold;vertical-align:top;">server_name</td><td style="vertical-align:top;">:</td><td><div>damla</div></td></tr><tr><td style="font-weight:bold;vertical-align:top;">server_port</td><td style="vertical-align:top;">:</td><td><div>8000</div></td></tr><tr><td style="font-weight:bold;vertical-align:top;">server_protocol</td><td style="vertical-align:top;">:</td><td><div>HTTP/1.1</div></td></tr><tr><td style="font-weight:bold;vertical-align:top;">server_software</td><td style="vertical-align:top;">:</td><td><div>Rocket 1.2.6</div></td></tr><tr><td style="font-weight:bold;vertical-align:top;">web2py_path</td><td style="vertical-align:top;">:</td><td><div>/home/damla/web2py</div></td></tr><tr><td style="font-weight:bold;vertical-align:top;">web2py_version</td><td style="vertical-align:top;">:</td><td><div>2.14.5-stable+timestamp.2016.04.14.03.26.16</div></td></tr><tr><td style="font-weight:bold;vertical-align:top;">wsgi.errors</td><td style="vertical-align:top;">:</td><td><div>&lt;open file &#x27;&lt;stderr&gt;&#x27;, mode &#x27;w&#x27; at 0x7f0ea54361e0&gt;</div></td></tr><tr><td style="font-weight:bold;vertical-align:top;">wsgi.file_wrapper</td><td style="vertical-align:top;">:</td><td><div>&lt;class wsgiref.util.FileWrapper at 0x7f0ea0d6b940&gt;</div></td></tr><tr><td style="font-weight:bold;vertical-align:top;">wsgi.input</td><td style="vertical-align:top;">:</td><td><div>&lt;socket._fileobject object at 0x7f0ea00d5dd0&gt;</div></td></tr><tr><td style="font-weight:bold;vertical-align:top;">wsgi.multiprocess</td><td style="vertical-align:top;">:</td><td><div>False</div></td></tr><tr><td style="font-weight:bold;vertical-align:top;">wsgi.multithread</td><td style="vertical-align:top;">:</td><td><div>True</div></td></tr><tr><td style="font-weight:bold;vertical-align:top;">wsgi.run_once</td><td style="vertical-align:top;">:</td><td><div>False</div></td></tr><tr><td style="font-weight:bold;vertical-align:top;">wsgi.url_scheme</td><td style="vertical-align:top;">:</td><td><div>http</div></td></tr><tr><td style="font-weight:bold;vertical-align:top;">wsgi.version</td><td style="vertical-align:top;">:</td><td><div><table><tr><td><div>1</div></td></tr><tr><td><div>0</div></td></tr></table></div></td></tr><tr><td style="font-weight:bold;vertical-align:top;">wsgi_errors</td><td style="vertical-align:top;">:</td><td><div>&lt;open file &#x27;&lt;stderr&gt;&#x27;, mode &#x27;w&#x27; at 0x7f0ea54361e0&gt;</div></td></tr><tr><td style="font-weight:bold;vertical-align:top;">wsgi_file_wrapper</td><td style="vertical-align:top;">:</td><td><div>&lt;class wsgiref.util.FileWrapper at 0x7f0ea0d6b940&gt;</div></td></tr><tr><td style="font-weight:bold;vertical-align:top;">wsgi_input</td><td style="vertical-align:top;">:</td><td><div>&lt;socket._fileobject object at 0x7f0ea00d5dd0&gt;</div></td></tr><tr><td style="font-weight:bold;vertical-align:top;">wsgi_multiprocess</td><td style="vertical-align:top;">:</td><td><div>False</div></td></tr><tr><td style="font-weight:bold;vertical-align:top;">wsgi_multithread</td><td style="vertical-align:top;">:</td><td><div>True</div></td></tr><tr><td style="font-weight:bold;vertical-align:top;">wsgi_run_once</td><td style="vertical-align:top;">:</td><td><div>False</div></td></tr><tr><td style="font-weight:bold;vertical-align:top;">wsgi_url_scheme</td><td style="vertical-align:top;">:</td><td><div>http</div></td></tr><tr><td style="font-weight:bold;vertical-align:top;">wsgi_version</td><td style="vertical-align:top;">:</td><td><div><table><tr><td><div>1</div></td></tr><tr><td><div>0</div></td></tr></table></div></td></tr></table></div></td></tr><tr><td style="font-weight:bold;vertical-align:top;">extension</td><td style="vertical-align:top;">:</td><td><div>html</div></td></tr><tr><td style="font-weight:bold;vertical-align:top;">folder</td><td style="vertical-align:top;">:</td><td><div>/home/damla/web2py/applications/webofsciencenew/</div></td></tr><tr><td style="font-weight:bold;vertical-align:top;">function</td><td style="vertical-align:top;">:</td><td><div>index</div></td></tr><tr><td style="font-weight:bold;vertical-align:top;">global_settings</td><td style="vertical-align:top;">:</td><td><div><table><tr><td style="font-weight:bold;vertical-align:top;">app_folders</td><td style="vertical-align:top;">:</td><td><div>set([&#x27;/home/damla/web2py/applications/welcome/&#x27;, &#x27;/home/damla/web2py/applications/webofsciencenew/&#x27;])</div></td></tr><tr><td style="font-weight:bold;vertical-align:top;">applications_parent</td><td style="vertical-align:top;">:</td><td><div>/home/damla/web2py</div></td></tr><tr><td style="font-weight:bold;vertical-align:top;">cmd_args</td><td style="vertical-align:top;">:</td><td><div><table></table></div></td></tr><tr><td style="font-weight:bold;vertical-align:top;">cmd_options</td><td style="vertical-align:top;">:</td><td><div>&lt;Values at 0x7f0ea0d3f3b0: {&#x27;verbose&#x27;: False, &#x27;ip&#x27;: &#x27;127.0.0.1&#x27;, &#x27;debuglevel&#x27;: 30, &#x27;with_scheduler&#x27;: False, &#x27;shutdown_timeout&#x27;: 5, &#x27;taskbar&#x27;: False, &#x27;with_coverage&#x27;: False, &#x27;pid_filename&#x27;: &#x27;httpserver.pid&#x27;, &#x27;maxthreads&#x27;: None, &#x27;softcron&#x27;: False, &#x27;server_name&#x27;: &#x27;damla&#x27;, &#x27;bpython&#x27;: False, &#x27;nogui&#x27;: False, &#x27;port&#x27;: 8000, &#x27;print_errors&#x27;: False, &#x27;extcron&#x27;: False, &#x27;runcron&#x27;: False, &#x27;run_system_tests&#x27;: False, &#x27;test&#x27;: None, &#x27;folder&#x27;: &#x27;/home/damla/web2py&#x27;, &#x27;config&#x27;: &#x27;&#x27;, &#x27;minthreads&#x27;: None, &#x27;shell&#x27;: None, &#x27;run&#x27;: &#x27;&#x27;, &#x27;log_filename&#x27;: &#x27;httpserver.log&#x27;, &#x27;profiler_dir&#x27;: None, &#x27;args&#x27;: [&#x27;&#x27;], &#x27;socket_timeout&#x27;: 5, &#x27;ssl_ca_certificate&#x27;: None, &#x27;scheduler&#x27;: None, &#x27;interfaces&#x27;: None, &#x27;ssl_private_key&#x27;: &#x27;&#x27;, &#x27;gae&#x27;: None, &#x27;password&#x27;: &#x27;******&#x27;, &#x27;request_queue_size&#x27;: 5, &#x27;ssl_certificate&#x27;: &#x27;&#x27;, &#x27;cronjob&#x27;: False, &#x27;numthreads&#x27;: None, &#x27;quiet&#x27;: False, &#x27;import_models&#x27;: False, &#x27;timeout&#x27;: 10, &#x27;plain&#x27;: False, &#x27;nobanner&#x27;: False}&gt;</div></td></tr><tr><td style="font-weight:bold;vertical-align:top;">db_sessions</td><td style="vertical-align:top;">:</td><td><div>set([])</div></td></tr><tr><td style="font-weight:bold;vertical-align:top;">debugging</td><td style="vertical-align:top;">:</td><td><div>False</div></td></tr><tr><td style="font-weight:bold;vertical-align:top;">gluon_parent</td><td style="vertical-align:top;">:</td><td><div>/home/damla/web2py</div></td></tr><tr><td style="font-weight:bold;vertical-align:top;">is_jython</td><td style="vertical-align:top;">:</td><td><div>False</div></td></tr><tr><td style="font-weight:bold;vertical-align:top;">is_pypy</td><td style="vertical-align:top;">:</td><td><div>False</div></td></tr><tr><td style="font-weight:bold;vertical-align:top;">is_source</td><td style="vertical-align:top;">:</td><td><div>True</div></td></tr><tr><td style="font-weight:bold;vertical-align:top;">local_hosts</td><td style="vertical-align:top;">:</td><td><div><table><tr><td><div>damla</div></td></tr><tr><td><div>::1</div></td></tr><tr><td><div>127.0.1.1</div></td></tr><tr><td><div>::ffff:127.0.0.1</div></td></tr><tr><td><div>127.0.0.1</div></td></tr></table></div></td></tr><tr><td style="font-weight:bold;vertical-align:top;">web2py_version</td><td style="vertical-align:top;">:</td><td><div>2.14.5-stable+timestamp.2016.04.14.03.26.16</div></td></tr></table></div></td></tr><tr><td style="font-weight:bold;vertical-align:top;">is_https</td><td style="vertical-align:top;">:</td><td><div>False</div></td></tr><tr><td style="font-weight:bold;vertical-align:top;">is_local</td><td style="vertical-align:top;">:</td><td><div>True</div></td></tr><tr><td style="font-weight:bold;vertical-align:top;">is_restful</td><td style="vertical-align:top;">:</td><td><div>False</div></td></tr><tr><td style="font-weight:bold;vertical-align:top;">is_scheduler</td><td style="vertical-align:top;">:</td><td><div>False</div></td></tr><tr><td style="font-weight:bold;vertical-align:top;">is_shell</td><td style="vertical-align:top;">:</td><td><div>False</div></td></tr><tr><td style="font-weight:bold;vertical-align:top;">now</td><td style="vertical-align:top;">:</td><td><div>datetime.datetime(2016, 7, 14, 15, 23, 0, 58513)</div></td></tr><tr><td style="font-weight:bold;vertical-align:top;">raw_args</td><td style="vertical-align:top;">:</td><td><div></div></td></tr><tr><td style="font-weight:bold;vertical-align:top;">raw_extension</td><td style="vertical-align:top;">:</td><td><div>None</div></td></tr><tr><td style="font-weight:bold;vertical-align:top;">url</td><td style="vertical-align:top;">:</td><td><div>/webofsciencenew</div></td></tr><tr><td style="font-weight:bold;vertical-align:top;">utcnow</td><td style="vertical-align:top;">:</td><td><div>datetime.datetime(2016, 7, 14, 12, 23, 0, 58531)</div></td></tr><tr><td style="font-weight:bold;vertical-align:top;">wsgi</td><td style="vertical-align:top;">:</td><td><div>&lt;gluon.main.LazyWSGI object at 0x7f0ea0092650&gt;</div></td></tr></table></div>'
tRp58
sS'frames'
p59
(lp60
(dp61
S'file'
p62
S'/home/damla/web2py/gluon/restricted.py'
p63
sS'dump'
p64
(dp65
S'environment'
p66
S"{'A': <class 'gluon.html.A'>, 'ANY_OF': <class 'gluon.validators.ANY_OF'>, 'ASSIGNJS': <function ASSIGNJS>, 'AppConfig': <function AppConfig>, 'Auth': <class 'gluon.tools.Auth'>, 'B': <class 'gluon.html.B'>, 'BEAUTIFY': <class 'gluon.html.BEAUTIFY'>, 'BODY': <class 'gluon.html.BODY'>, 'BR': <class 'gluon.html.BR'>, 'BUTTON': <class 'gluon.html.BUTTON'>, ...}"
p67
sS'ccode'
p68
S'<code object <module> at 0x7f0e987e0630, file "/...ebofsciencenew/views/default/index.html", line 1>'
p69
ssS'lnum'
p70
I227
sS'lines'
p71
(dp72
I224
S'            ccode = code'
p73
sI225
S'        else:'
p74
sI226
S'            ccode = compile2(code, layer)'
p75
sI227
S'        exec ccode in environment'
p76
sI228
S'    except HTTP:'
p77
sI229
S'        raise'
p78
sI230
S'    except RestrictedError:'
p79
sI231
S'        # do not encapsulate (obfuscate) the original RestrictedError'
p80
sI222
S'    try:'
p81
sI223
S'        if isinstance(code, types.CodeType):'
p82
ssS'call'
p83
S'(code=\'response.write(\\\'<!DOCTYPE html>\\\\n<html lang="en"...ences -->\\\\n\\\\n\\\\t</body>\\\\n</html>\\\\n\\\', escape=False)\', environment={\'A\': <class \'gluon.html.A\'>, \'ANY_OF\': <class \'gluon.validators.ANY_OF\'>, \'ASSIGNJS\': <function ASSIGNJS>, \'AppConfig\': <function AppConfig>, \'Auth\': <class \'gluon.tools.Auth\'>, \'B\': <class \'gluon.html.B\'>, \'BEAUTIFY\': <class \'gluon.html.BEAUTIFY\'>, \'BODY\': <class \'gluon.html.BODY\'>, \'BR\': <class \'gluon.html.BR\'>, \'BUTTON\': <class \'gluon.html.BUTTON\'>, ...}, layer=\'/home/damla/web2py/applications/webofsciencenew/views/default/index.html\')'
p84
sS'func'
p85
S'restricted'
p86
sa(dp87
g62
S'/home/damla/web2py/applications/webofsciencenew/views/default/index.html'
p88
sg64
(dp89
sg70
I45
sg71
(dp90
I36
S"        response.write('/', escape=False)"
p91
sI37
S'        response.write(facetList[0][i])'
p92
sI38
S'        response.write(\'/">\', escape=False)'
p93
sI39
S'        response.write(facetList[0][i])'
p94
sI40
S"        response.write('<a>\\n          ', escape=False)"
p95
sI41
S'        for article in articles:'
p96
sI42
S"            response.write('\\n\\n            ', escape=False)"
p97
sI43
S"            for author in article['authors']:"
p98
sI44
S"                response.write('\\n\\n                ', escape=False)"
p99
sI45
S'                if author in authorname:'
p100
sI46
S"                    response.write('\\n                  ', escape=False)"
p101
sI47
S"                    index=article['authors'].index(author)"
p102
sI48
S"                    response.write('\\n                ', escape=False)"
p103
sI49
S'                else:'
p104
sI50
S'                    continue'
p105
sI51
S"                response.write('\\n            ', escape=False)"
p106
sI52
S'                pass'
p107
sI53
S"            response.write('\\n            ', escape=False)"
p108
sI54
S"            if 'revisedAddress' in article :"
p109
sI55
S"                response.write('\\n              ', escape=False)"
p110
ssg83
S'()'
p111
sg85
S'<module>'
p112
sasS'pyver'
p113
S'Python 2.7.6: /usr/bin/python (prefix: /usr)'
p114
sS'session'
p115
g57
(S's\x9e\x00\x00\x00<div><table><tr><td style="font-weight:bold;vertical-align:top;">keyword</td><td style="vertical-align:top;">:</td><td><div>None</div></td></tr></table></div>'
tRp116
sS'etype'
p117
S"<type 'exceptions.NameError'>"
p118
sS'date'
p119
S'Thu Jul 14 15:23:01 2016'
p120
sS'response'
p121
g57
(S's\xfd>\x00\x00<div><table><tr><td style="font-weight:bold;vertical-align:top;">body</td><td style="vertical-align:top;">:</td><td><div>&lt;cStringIO.StringO object at 0x7f0ea00b3570&gt;</div></td></tr><tr><td style="font-weight:bold;vertical-align:top;">cookies</td><td style="vertical-align:top;">:</td><td><div><table><tr><td style="font-weight:bold;vertical-align:top;">session_id_webofsciencenew</td><td style="vertical-align:top;">:</td><td><div>127.0.0.1-7268e813-a95d-468a-98ec-b16caaf60e13<table><tr><td style="font-weight:bold;vertical-align:top;">comment</td><td style="vertical-align:top;">:</td><td><div></div></td></tr><tr><td style="font-weight:bold;vertical-align:top;">domain</td><td style="vertical-align:top;">:</td><td><div></div></td></tr><tr><td style="font-weight:bold;vertical-align:top;">expires</td><td style="vertical-align:top;">:</td><td><div></div></td></tr><tr><td style="font-weight:bold;vertical-align:top;">httponly</td><td style="vertical-align:top;">:</td><td><div></div></td></tr><tr><td style="font-weight:bold;vertical-align:top;">max-age</td><td style="vertical-align:top;">:</td><td><div></div></td></tr><tr><td style="font-weight:bold;vertical-align:top;">path</td><td style="vertical-align:top;">:</td><td><div>/</div></td></tr><tr><td style="font-weight:bold;vertical-align:top;">secure</td><td style="vertical-align:top;">:</td><td><div></div></td></tr><tr><td style="font-weight:bold;vertical-align:top;">version</td><td style="vertical-align:top;">:</td><td><div></div></td></tr></table></div></td></tr></table></div></td></tr><tr><td style="font-weight:bold;vertical-align:top;">delimiters</td><td style="vertical-align:top;">:</td><td><div><table><tr><td><div>{{</div></td></tr><tr><td><div>}}</div></td></tr></table></div></td></tr><tr><td style="font-weight:bold;vertical-align:top;">files</td><td style="vertical-align:top;">:</td><td><div><table></table></div></td></tr><tr><td style="font-weight:bold;vertical-align:top;">flash</td><td style="vertical-align:top;">:</td><td><div></div></td></tr><tr><td style="font-weight:bold;vertical-align:top;">form_label_separator</td><td style="vertical-align:top;">:</td><td><div></div></td></tr><tr><td style="font-weight:bold;vertical-align:top;">formstyle</td><td style="vertical-align:top;">:</td><td><div>bootstrap3_inline</div></td></tr><tr><td style="font-weight:bold;vertical-align:top;">generic_patterns</td><td style="vertical-align:top;">:</td><td><div><table><tr><td><div>*</div></td></tr></table></div></td></tr><tr><td style="font-weight:bold;vertical-align:top;">google_analytics_id</td><td style="vertical-align:top;">:</td><td><div>None</div></td></tr><tr><td style="font-weight:bold;vertical-align:top;">headers</td><td style="vertical-align:top;">:</td><td><div><table><tr><td style="font-weight:bold;vertical-align:top;">X-Powered-By</td><td style="vertical-align:top;">:</td><td><div>web2py</div></td></tr></table></div></td></tr><tr><td style="font-weight:bold;vertical-align:top;">logo</td><td style="vertical-align:top;">:</td><td><div><a class="navbar-brand" href="http://www.web2py.com/" id="web2py-logo"><b>web<span>2</span>py</b>&trade;&nbsp;</a></div></td></tr><tr><td style="font-weight:bold;vertical-align:top;">menu</td><td style="vertical-align:top;">:</td><td><div><table><tr><td><div><table><tr><td><div>Anasayfa</div></td></tr><tr><td><div>False</div></td></tr><tr><td><div>/webofsciencenew/default/index</div></td></tr><tr><td><div><table></table></div></td></tr></table></div></td></tr><tr><td><div><table><tr><td><div>Sitelerim</div></td></tr><tr><td><div>False</div></td></tr><tr><td><div>/admin/default/site</div></td></tr></table></div></td></tr><tr><td><div><table><tr><td><div>Bu Uygulama</div></td></tr><tr><td><div>False</div></td></tr><tr><td><div>#</div></td></tr><tr><td><div><table><tr><td><div><table><tr><td><div>Design</div></td></tr><tr><td><div>False</div></td></tr><tr><td><div>/admin/default/design/webofsciencenew</div></td></tr></table></div></td></tr><tr><td><div><li class="divider"></li></div></td></tr><tr><td><div><table><tr><td><div>Denet\xc3\xa7i</div></td></tr><tr><td><div>False</div></td></tr><tr><td><div>/admin/default/edit/webofsciencenew/controllers/default.py</div></td></tr></table></div></td></tr><tr><td><div><table><tr><td><div>G\xc3\xb6r\xc3\xbcn\xc3\xbcm</div></td></tr><tr><td><div>False</div></td></tr><tr><td><div>/admin/default/edit/webofsciencenew/views/default/index.html</div></td></tr></table></div></td></tr><tr><td><div><table><tr><td><div>DB Modeli</div></td></tr><tr><td><div>False</div></td></tr><tr><td><div>/admin/default/edit/webofsciencenew/models/db.py</div></td></tr></table></div></td></tr><tr><td><div><table><tr><td><div>Model Men\xc3\xbc</div></td></tr><tr><td><div>False</div></td></tr><tr><td><div>/admin/default/edit/webofsciencenew/models/menu.py</div></td></tr></table></div></td></tr><tr><td><div><table><tr><td><div>Config.ini</div></td></tr><tr><td><div>False</div></td></tr><tr><td><div>/admin/default/edit/webofsciencenew/private/appconfig.ini</div></td></tr></table></div></td></tr><tr><td><div><table><tr><td><div>\xc5\x9eablon</div></td></tr><tr><td><div>False</div></td></tr><tr><td><div>/admin/default/edit/webofsciencenew/views/layout.html</div></td></tr></table></div></td></tr><tr><td><div><table><tr><td><div>Stil \xc5\x9eablonu</div></td></tr><tr><td><div>False</div></td></tr><tr><td><div>/admin/default/edit/webofsciencenew/static/css/web2py-bootstrap3.css</div></td></tr></table></div></td></tr><tr><td><div><table><tr><td><div>Veritaban\xc4\xb1</div></td></tr><tr><td><div>False</div></td></tr><tr><td><div>/webofsciencenew/appadmin/index</div></td></tr></table></div></td></tr><tr><td><div><table><tr><td><div>Hatalar</div></td></tr><tr><td><div>False</div></td></tr><tr><td><div>/admin/default/errors/webofsciencenew</div></td></tr></table></div></td></tr><tr><td><div><table><tr><td><div>Hakk\xc4\xb1nda</div></td></tr><tr><td><div>False</div></td></tr><tr><td><div>/admin/default/about/webofsciencenew</div></td></tr></table></div></td></tr></table></div></td></tr></table></div></td></tr><tr><td><div><table><tr><td><div>web2py.com</div></td></tr><tr><td><div>False</div></td></tr><tr><td><div>#</div></td></tr><tr><td><div><table><tr><td><div><table><tr><td><div>\xc4\xb0ndir</div></td></tr><tr><td><div>False</div></td></tr><tr><td><div>http://www.web2py.com/examples/default/download</div></td></tr></table></div></td></tr><tr><td><div><table><tr><td><div>Destek</div></td></tr><tr><td><div>False</div></td></tr><tr><td><div>http://www.web2py.com/examples/default/support</div></td></tr></table></div></td></tr><tr><td><div><table><tr><td><div>Tan\xc4\xb1t\xc4\xb1m</div></td></tr><tr><td><div>False</div></td></tr><tr><td><div>http://web2py.com/demo_admin</div></td></tr></table></div></td></tr><tr><td><div><table><tr><td><div>H\xc4\xb1zl\xc4\xb1 \xc3\x96rnekler</div></td></tr><tr><td><div>False</div></td></tr><tr><td><div>http://web2py.com/examples/default/examples</div></td></tr></table></div></td></tr><tr><td><div><table><tr><td><div>SSS</div></td></tr><tr><td><div>False</div></td></tr><tr><td><div>http://web2py.com/AlterEgo</div></td></tr></table></div></td></tr><tr><td><div><table><tr><td><div>Videolar</div></td></tr><tr><td><div>False</div></td></tr><tr><td><div>http://www.web2py.com/examples/default/videos/</div></td></tr></table></div></td></tr><tr><td><div><table><tr><td><div>\xc3\x9ccretsiz uygulamalar</div></td></tr><tr><td><div>False</div></td></tr><tr><td><div>http://web2py.com/appliances</div></td></tr></table></div></td></tr><tr><td><div><table><tr><td><div>Eklentiler</div></td></tr><tr><td><div>False</div></td></tr><tr><td><div>http://web2py.com/plugins</div></td></tr></table></div></td></tr><tr><td><div><table><tr><td><div>Tarifeler</div></td></tr><tr><td><div>False</div></td></tr><tr><td><div>http://web2pyslices.com/</div></td></tr></table></div></td></tr></table></div></td></tr></table></div></td></tr><tr><td><div><table><tr><td><div>Kitap</div></td></tr><tr><td><div>False</div></td></tr><tr><td><div>#</div></td></tr><tr><td><div><table><tr><td><div><table><tr><td><div>Online book</div></td></tr><tr><td><div>False</div></td></tr><tr><td><div>http://www.web2py.com/book</div></td></tr></table></div></td></tr><tr><td><div><li class="divider"></li></div></td></tr><tr><td><div><table><tr><td><div>\xc3\x96nz\xc3\xb6s</div></td></tr><tr><td><div>False</div></td></tr><tr><td><div>http://www.web2py.com/book/default/chapter/00</div></td></tr></table></div></td></tr><tr><td><div><table><tr><td><div>Giri\xc5\x9f</div></td></tr><tr><td><div>False</div></td></tr><tr><td><div>http://www.web2py.com/book/default/chapter/01</div></td></tr></table></div></td></tr><tr><td><div><table><tr><td><div>Python</div></td></tr><tr><td><div>False</div></td></tr><tr><td><div>http://www.web2py.com/book/default/chapter/02</div></td></tr></table></div></td></tr><tr><td><div><table><tr><td><div>G\xc3\xb6z gezdir</div></td></tr><tr><td><div>False</div></td></tr><tr><td><div>http://www.web2py.com/book/default/chapter/03</div></td></tr></table></div></td></tr><tr><td><div><table><tr><td><div>\xc3\x87ekirdek</div></td></tr><tr><td><div>False</div></td></tr><tr><td><div>http://www.web2py.com/book/default/chapter/04</div></td></tr></table></div></td></tr><tr><td><div><table><tr><td><div>G\xc3\xb6r\xc3\xbcn\xc3\xbcmler</div></td></tr><tr><td><div>False</div></td></tr><tr><td><div>http://www.web2py.com/book/default/chapter/05</div></td></tr></table></div></td></tr><tr><td><div><table><tr><td><div>Veritaban\xc4\xb1</div></td></tr><tr><td><div>False</div></td></tr><tr><td><div>http://www.web2py.com/book/default/chapter/06</div></td></tr></table></div></td></tr><tr><td><div><table><tr><td><div>Bi\xc3\xa7imler ve Do\xc4\x9frulay\xc4\xb1c\xc4\xb1lar</div></td></tr><tr><td><div>False</div></td></tr><tr><td><div>http://www.web2py.com/book/default/chapter/07</div></td></tr></table></div></td></tr><tr><td><div><table><tr><td><div>E-posta ve k\xc4\xb1sa mesaj (SMS)</div></td></tr><tr><td><div>False</div></td></tr><tr><td><div>http://www.web2py.com/book/default/chapter/08</div></td></tr></table></div></td></tr><tr><td><div><table><tr><td><div>Eri\xc5\x9fim Denetimi</div></td></tr><tr><td><div>False</div></td></tr><tr><td><div>http://www.web2py.com/book/default/chapter/09</div></td></tr></table></div></td></tr><tr><td><div><table><tr><td><div>Hizmetler</div></td></tr><tr><td><div>False</div></td></tr><tr><td><div>http://www.web2py.com/book/default/chapter/10</div></td></tr></table></div></td></tr><tr><td><div><table><tr><td><div>Ajax Tarifleri</div></td></tr><tr><td><div>False</div></td></tr><tr><td><div>http://www.web2py.com/book/default/chapter/11</div></td></tr></table></div></td></tr><tr><td><div><table><tr><td><div>Bile\xc5\x9fenler ve Eklentiler</div></td></tr><tr><td><div>False</div></td></tr><tr><td><div>http://www.web2py.com/book/default/chapter/12</div></td></tr></table></div></td></tr><tr><td><div><table><tr><td><div>Yay\xc4\xb1nlama tarifleri</div></td></tr><tr><td><div>False</div></td></tr><tr><td><div>http://www.web2py.com/book/default/chapter/13</div></td></tr></table></div></td></tr><tr><td><div><table><tr><td><div>Di\xc4\x9fer Tarifler</div></td></tr><tr><td><div>False</div></td></tr><tr><td><div>http://www.web2py.com/book/default/chapter/14</div></td></tr></table></div></td></tr><tr><td><div><table><tr><td><div>Helping web2py</div></td></tr><tr><td><div>False</div></td></tr><tr><td><div>http://www.web2py.com/book/default/chapter/15</div></td></tr></table></div></td></tr><tr><td><div><table><tr><td><div>Buy web2py\'s book</div></td></tr><tr><td><div>False</div></td></tr><tr><td><div>http://stores.lulu.com/web2py</div></td></tr></table></div></td></tr></table></div></td></tr></table></div></td></tr><tr><td><div><table><tr><td><div>Topluluk</div></td></tr><tr><td><div>False</div></td></tr><tr><td><div>None</div></td></tr><tr><td><div><table><tr><td><div><table><tr><td><div>Gruplar</div></td></tr><tr><td><div>False</div></td></tr><tr><td><div>http://www.web2py.com/examples/default/usergroups</div></td></tr></table></div></td></tr><tr><td><div><table><tr><td><div>Twitter</div></td></tr><tr><td><div>False</div></td></tr><tr><td><div>http://twitter.com/web2py</div></td></tr></table></div></td></tr><tr><td><div><table><tr><td><div>Canl\xc4\xb1 Sohbet</div></td></tr><tr><td><div>False</div></td></tr><tr><td><div>http://webchat.freenode.net/?channels=web2py</div></td></tr></table></div></td></tr></table></div></td></tr></table></div></td></tr></table></div></td></tr><tr><td style="font-weight:bold;vertical-align:top;">meta</td><td style="vertical-align:top;">:</td><td><div><table><tr><td style="font-weight:bold;vertical-align:top;">author</td><td style="vertical-align:top;">:</td><td><div>Your Name &lt;you@example.com&gt;</div></td></tr><tr><td style="font-weight:bold;vertical-align:top;">description</td><td style="vertical-align:top;">:</td><td><div>a cool new app</div></td></tr><tr><td style="font-weight:bold;vertical-align:top;">generator</td><td style="vertical-align:top;">:</td><td><div>Web2py Web Framework</div></td></tr><tr><td style="font-weight:bold;vertical-align:top;">keywords</td><td style="vertical-align:top;">:</td><td><div><table><tr><td><div>web2py</div></td></tr><tr><td><div>python</div></td></tr><tr><td><div>framework</div></td></tr></table></div></td></tr></table></div></td></tr><tr><td style="font-weight:bold;vertical-align:top;">models_to_run</td><td style="vertical-align:top;">:</td><td><div><table><tr><td><div>^\\w+\\.py$</div></td></tr><tr><td><div>^default/\\w+\\.py$</div></td></tr><tr><td><div>^default/index/\\w+\\.py$</div></td></tr></table></div></td></tr><tr><td style="font-weight:bold;vertical-align:top;">postprocessing</td><td style="vertical-align:top;">:</td><td><div><table></table></div></td></tr><tr><td style="font-weight:bold;vertical-align:top;">session_client</td><td style="vertical-align:top;">:</td><td><div>127.0.0.1</div></td></tr><tr><td style="font-weight:bold;vertical-align:top;">session_cookie_compression_level</td><td style="vertical-align:top;">:</td><td><div>None</div></td></tr><tr><td style="font-weight:bold;vertical-align:top;">session_cookie_expires</td><td style="vertical-align:top;">:</td><td><div>None</div></td></tr><tr><td style="font-weight:bold;vertical-align:top;">session_data_name</td><td style="vertical-align:top;">:</td><td><div>session_data_webofsciencenew</div></td></tr><tr><td style="font-weight:bold;vertical-align:top;">session_file</td><td style="vertical-align:top;">:</td><td><div>None</div></td></tr><tr><td style="font-weight:bold;vertical-align:top;">session_filename</td><td style="vertical-align:top;">:</td><td><div>/home/damla/web2py/applications/webofsciencenew/sessions/127.0.0.1-7268e813-a95d-468a-98ec-b16caaf60e13</div></td></tr><tr><td style="font-weight:bold;vertical-align:top;">session_hash</td><td style="vertical-align:top;">:</td><td><div>c0762cbf4baf7f9af97c051e7fcb8083</div></td></tr><tr><td style="font-weight:bold;vertical-align:top;">session_id</td><td style="vertical-align:top;">:</td><td><div>127.0.0.1-7268e813-a95d-468a-98ec-b16caaf60e13</div></td></tr><tr><td style="font-weight:bold;vertical-align:top;">session_id_name</td><td style="vertical-align:top;">:</td><td><div>session_id_webofsciencenew</div></td></tr><tr><td style="font-weight:bold;vertical-align:top;">session_masterapp</td><td style="vertical-align:top;">:</td><td><div>webofsciencenew</div></td></tr><tr><td style="font-weight:bold;vertical-align:top;">session_new</td><td style="vertical-align:top;">:</td><td><div>True</div></td></tr><tr><td style="font-weight:bold;vertical-align:top;">session_storage_type</td><td style="vertical-align:top;">:</td><td><div>file</div></td></tr><tr><td style="font-weight:bold;vertical-align:top;">status</td><td style="vertical-align:top;">:</td><td><div>200</div></td></tr><tr><td style="font-weight:bold;vertical-align:top;">subtitle</td><td style="vertical-align:top;">:</td><td><div></div></td></tr><tr><td style="font-weight:bold;vertical-align:top;">title</td><td style="vertical-align:top;">:</td><td><div>Webofsciencenew</div></td></tr><tr><td style="font-weight:bold;vertical-align:top;">view</td><td style="vertical-align:top;">:</td><td><div>default/index.html</div></td></tr></table></div>'
tRp122
sS'locals'
p123
(dp124
S'Service'
p125
S"<class 'gluon.tools.Service'>"
p126
sS'OBJECT'
p127
S"<class 'gluon.html.OBJECT'>"
p128
sS'SQLDB'
p129
S"<class 'pydal.base.DAL'>"
p130
sg115
S"<Storage {'keyword': 'None'}>"
p131
sS'LINK'
p132
S"<class 'gluon.html.LINK'>"
p133
sS'BR'
p134
S"<class 'gluon.html.BR'>"
p135
sS'local_import'
p136
S'<function <lambda>>'
p137
sS'OPTGROUP'
p138
S"<class 'gluon.html.OPTGROUP'>"
p139
sS'__package__'
p140
S'None'
p141
sS'PRE'
p142
S"<class 'gluon.html.PRE'>"
p143
sS'IS_INT_IN_RANGE'
p144
S"<class 'gluon.validators.IS_INT_IN_RANGE'>"
p145
sS'IS_LOWER'
p146
S"<class 'gluon.validators.IS_LOWER'>"
p147
sS'IS_STRONG'
p148
S"<class 'gluon.validators.IS_STRONG'>"
p149
sS'cache'
p150
S'<gluon.cache.Cache object>'
p151
sS'IS_IN_DB'
p152
S"<class 'gluon.validators.IS_IN_DB'>"
p153
sS'TAG'
p154
S'<gluon.html.__TAG__ object>'
p155
sS'SQLField'
p156
S"<class 'pydal.objects.Field'>"
p157
sS'mail'
p158
S'<gluon.tools.Mail object>'
p159
sS'BODY'
p160
S"<class 'gluon.html.BODY'>"
p161
sS'IS_DATE_IN_RANGE'
p162
S"<class 'gluon.validators.IS_DATE_IN_RANGE'>"
p163
sS'IFRAME'
p164
S"<class 'gluon.html.IFRAME'>"
p165
sS'articles'
p166
S'[{\'_version_\': 1537856508573777920, \'abstract\': [\'Although several quantum programming languages h... an adiabatic quantum programming infrastructure.\'], \'address\': [\'[ 1 ] Bogazici Univ, Dept Comp Engn, Istanbul, \'], \'authors\': [\'Khusnitdinova, E\', \'Say, ACC\'], \'id\': \'f1209d7b-cecd-4478-8e3b-075050eab520\', \'journal\': [\'Computer and Information Sciences - ISCIS 2006, Proceedings\'], \'published\': [\'2006\'], \'researchareas\': [\'Computer Science\\n\'], \'title\': [\'Problems of adiabatic quantum program design\'], \'webofsciencecategories\': [\'Computer Science, Artificial Intelligence; Compu...e Engineering; Computer Science, Theory & Methods\']}, {\'_version_\': 1537856508534980613, \'abstract\': [\'Interaction protocols enable agents to communica... to check these properties in such a design tool.\'], \'address\': [\'[ 1 ] Bogazici Univ, Dept Comp Engn, TR-34342 Istanbul, \'], \'authors\': [\'Yolum, P\'], \'id\': \'31c11837-bb25-4a13-a473-ea6d5355da87\', \'journal\': [\'Agent Communication II\'], \'keywordsplus\': [\'COMMITMENTS\', \'CALCULUS\'], \'published\': [\'2006\'], \'researchareas\': [\'Computer Science\\n\'], \'title\': [\'Towards design tools for protocol development\'], ...}, {\'DOI\': [\'10.1016/j.jnca.2012.08.006\'], \'_version_\': 1537856506227064832, \'abstract\': [\'RFID (Radio Frequency IDentification) based comm...y but none of them consider offline RFID system.\\n\', \'\\n\', \'Motivated by this need, in this paper, we first ...acks. (c) 2012 Elsevier Ltd. All rights reserved.\'], \'address\': [\'[ 1 ] TUBITAK BILGEM UEKAE, Kocaeli, \', \'[ 2 ] Sabanci Univ, Fac Engn & Nat Sci, Istanbul, \'], \'addressnumbers\': [\'[\', \'1\', \',\', \'2\', \']\', \'[\', \'1\', \',\', \'2\', \']\', \'[\', \'1\', \',\', \'2\', \']\', \'[\', \'2\', \']\'], \'authors\': [\'Kardas, S\', \'Celik, S\', \'Yildiz, M\', \'Levi, A\'], \'id\': \'cd3f6f30-8053-4c3a-b942-991c1db0672e\', \'journal\': [\'JOURNAL OF NETWORK AND COMPUTER APPLICATIONS\'], \'keywords\': [\'RFID\', \'PUF\', \'Security\', \'Privacy\', \'Compromise of reader\'], \'keywordsplus\': [\'AUTHENTICATION\', \'PROTOCOLS\'], ...}, {\'DOI\': [\'10.1016/j.eswa.2011.05.026\'], \'_version_\': 1537856506694729729, \'abstract\': [\'Building hazard assessment prior to earthquake o...vely. (C) 2011 Elsevier Ltd. All rights reserved.\'], \'address\': [\'[ 1 ] Istanbul Tech Univ, Fac Civil Engn, TR-34469 Istanbul, \'], \'authors\': [\'Sen, Z\'], \'id\': \'f0cacd4b-5123-4e84-af06-2aad56af6ece\', \'journal\': [\'EXPERT SYSTEMS WITH APPLICATIONS\'], \'keywords\': [\'Earthquake\', \'Hazard\', \'Categories\', \'Moment of inertia\', \'Stiffness\', \'Supervised fuzzy model\'], \'keywordsplus\': [\'SEISMIC RISK-ASSESSMENT\', \'STOCKS\'], \'published\': [\'NOV-DEC 2011\'], ...}, {\'DOI\': [\'10.1016/j.cpc.2007.01.002\'], \'_version_\': 1537856508140716033, \'abstract\': [\'Determining the crystal structure parameters of ...tists to analyze crystal structures efficiently.\\n\', \'\\n\', \'Program summary\\n\', \'\\n\', \'Title of program: BilKristal\\n\', \'\\n\', \'Catalogue identifier: ADYU_v1_0\\n\', \'\\n\', \'Program summary URL: http://cpc.cs.qub.ac.uk/summaries/ADYU_v1_0\\n\', \'\\n\', "Program obtainable from: CPC Program Library, Queen\'s University of Belfast, N. Ireland\\n", \'\\n\', \'Licensing provisions: None\\n\', \'\\n\', \'Programming language used: C, C++, Microsoft.NET Framework 1.1 and OpenGL Libraries\\n\', \'\\n\', \'Computer: Personal Computers with Windows operating system\\n\', \'\\n\', \'Operating system: Windows XP Professional\\n\', \'\\n\', ...], \'address\': [\'[ 1 ] Bilkent Univ, Dept Comp Engn, TR-06800 Ankara, \', \'[ 2 ] Bilkent Univ, Dept Phys, TR-06800 Ankara, \'], \'authors\': [\'Okuyan, E\', \'Gudukbay, U\', \'Gulseren, O\'], \'id\': \'3721725e-8e05-4b87-b74c-7bd88bd07fbc\', \'journal\': [\'COMPUTER PHYSICS COMMUNICATIONS\'], \'keywords\': [\'crystal\', \'crystallography\', \'chemistry\', \'material science\', \'pattern recognition\', \'primitive vectors\', \'basis vectors\', \'space group\', \'symmetry\'], \'keywordsplus\': [\'ALGORITHM\'], \'published\': [\'APR 1 2007\'], ...}, {\'DOI\': [\'10.1109/TR.2014.2338252\'], \'_version_\': 1537856504904810497, \'abstract\': [\'In the classical Marshall-Olkin model, the syste...and an extension to a general model is discussed.\'], \'address\': [\'[ 1 ] Izmir Univ Econ, Dept Math, TR-35330 Balcova, \'], \'addressnumbers\': [\'[\', \'1\', \']\', \'[\', \'1\', \']\'], \'authors\': [\'Bayramoglu, I\', \'Ozkut, M\'], \'id\': \'2fc8b3fa-8a93-40cb-a12f-fa2c2acc40fe\', \'journal\': [\'IEEE TRANSACTIONS ON RELIABILITY\'], \'keywords\': [\'Coherent system\', \'Marshall-Olkin distribution\', \'order statistics\', \'survival function\'], \'keywordsplus\': [\'EXPONENTIAL-DISTRIBUTION\', \'CENSORED-DATA\', \'BIVARIATE\', \'DISTRIBUTIONS\', \'SIGNATURE\', \'PARAMETER\'], ...}, {\'DOI\': [\'10.1007/978-3-319-24285-9_12\'], \'_version_\': 1537856504990793729, \'abstract\': [\'There are various software size measurement meth...omain is proposed based on software design sizes.\'], \'address\': [\'[ 1 ] Middle E Tech Univ, Grad Sch Informat, TR-06531 Ankara, \'], \'addressnumbers\': [\'[\', \'1\', \']\', \'[\', \'1\', \']\'], \'authors\': [\'Ungan, E\', \'Demirrs, O\'], \'id\': \'381958e9-5e8a-4213-b616-b08890148b6d\', \'journal\': [\'SOFTWARE MEASUREMENT (IWSM-MENSURA 2015)\'], \'published\': [\'2015\'], \'researchareas\': [\'Computer Science\\n\'], ...}, {\'DOI\': [\'10.1007/s00422-014-0619-1\'], \'_version_\': 1537856505209946112, \'abstract\': [\'Correct knowledge of the effective connectivity ...aracteristics of these approaches are considered.\'], \'address\': [\'[ 1 ] Ege Univ, Dept Comp Engn, TR-35100 Izmir, \', \'[ 2 ] CEA LIST, Lab Model Driven Engn Embedded Syst, F-91191 Gif Sur Yvette, France\'], \'addressnumbers\': [\'[\', \'1\', \',\', \'2\', \']\'], \'authors\': [\'Gurcan, O\'], \'id\': \'528f26ee-3fb5-4c58-be2b-99b9e5c789b9\', \'journal\': [\'BIOLOGICAL CYBERNETICS\'], \'keywords\': [\'Human studies\', \'Effective connectivity\', \'Synaptic level\', \'Artificial intelligence\'], \'keywordsplus\': [\'ARTIFICIAL BRAIN PROJECTS\', \'LARGE-SCALE MODEL\', \'POSTSYNAPTIC POTENTIALS\', \'NEURAL-NETWORKS\', \'MOTOR-UNIT\', \'HUMAN MOTONEURONS\', \'REFLEX RESPONSES\', \'EVOKED-RESPONSES\', \'SPIKING NEURONS\', \'WORLD SURVEY\'], ...}, {\'_version_\': 1537856505440632834, \'abstract\': [\'This study is focused on a new approach for addr... is conducted and obtained results are presented.\'], \'address\': [\'[ 1 ] Middle E Tech Univ, Dept Comp Engn, TR-06531 Ankara, \', \'[ 2 ] GATE AS, Ankara, \'], \'addressnumbers\': [\'[\', \'1\', \']\', \'[\', \'1\', \']\', \'[\', \'1\', \']\', \'[\', \'2\', \']\'], \'authors\': [\'Sert, SA\', \'Yazici, A\', \'Cosar, A\', \'Yilmazer, C\'], \'id\': \'0bfaa0f0-8630-4fb8-9ea7-8739040241e0\', \'journal\': [\'2014 INTERNATIONAL WIRELESS COMMUNICATIONS AND MOBILE COMPUTING CONFERENCE (IWCMC)\'], \'keywords\': [\'wireless multimedia sensor networks\', \'fuzzy clustering and classification\', \'hierarchical data fusion\', \'surveillance applications\', \'actuator networks\'], \'published\': [\'2014\'], \'researchareas\': [\'Computer Science; Engineering; Telecommunications\'], ...}, {\'DOI\': [\'10.1016/j.im.2013.09.007\'], \'_version_\': 1537856505587433473, \'abstract\': [\'While the importance of information technology i...ults. (C) 2013 Elsevier B.V. All rights reserved.\'], \'address\': [\'[ 1 ] Sakarya Univ, Sch Management, Dept Management Informat Syst, Sakarya, \', \'[ 2 ] Univ N Carolina, Informat Syst & Supply Ch...yan Sch Business & Econ, Greensboro, NC 27412 USA\'], \'addressnumbers\': [\'[\', \'1\', \']\', \'[\', \'2\', \']\'], \'authors\': [\'Turan, AH\', \'Palvia, PC\'], \'id\': \'ba2a7645-8e18-4bbc-999a-4b77de7b5cbf\', \'journal\': [\'INFORMATION & MANAGEMENT\'], \'keywords\': [\'Healthcare\', \'Key IT issues\', \'Turkey\', \'Healthcare information technology (HIT)\', \'Hospital managers\'], \'keywordsplus\': [\'KEY ISSUES\', \'SYSTEMS\', \'QUALITY\'], ...}, {\'DOI\': [\'10.1109/CVPRW.2013.142\'], \'_version_\': 1537856506008961025, \'abstract\': [\'In daily life, humans demonstrate astounding abi...ial pyramid structure as in the previous studies.\'], \'address\': [\'[ 1 ] Hacettepe Univ, Ankara, \'], \'addressnumbers\': [\'[\', \'1\', \']\', \'[\', \'1\', \']\', \'[\', \'1\', \']\'], \'authors\': [\'Celikkale, B\', \'Erdem, A\', \'Erdem, E\'], \'id\': \'f7c5c51a-7850-479e-b51b-d2059b4511d2\', \'journal\': [\'2013 IEEE CONFERENCE ON COMPUTER VISION AND PATTERN RECOGNITION WORKSHOPS (CVPRW)\'], \'keywordsplus\': [\'PREVIOUSLY ATTENDED OBJECTS\', \'NATURAL SCENES\', \'MEMORY\', \'RECOGNITION\', \'PICTURES\', \'FEATURES\'], \'published\': [\'2013\'], ...}, {\'DOI\': [\'10.1109/I-SPAN.2012.21\'], \'_version_\': 1537856506412662786, \'abstract\': [\'In wormhole meshes, many fault-tolerant routing ... for wormhole routing in two-dimensional meshes.\\n\', \'\\n\', \'Considering XY-routing as a precious property of...s given for handling dynamic faults and recovery.\'], \'address\': [\'[ 1 ] Istanbul Univ, Dept Comp Engn, TR-34320 Istanbul, \'], \'addressnumbers\': [\'[\', \'1\', \']\'], \'authors\': [\'Tse, SSH\', \'Zhou, JP\', \'Lau, FCM\'], \'id\': \'27c135e7-c89a-42aa-9694-b52415d64399\', \'journal\': [\'PROCEEDINGS OF THE 2012 12TH INTERNATIONAL SYMPO...E SYSTEMS, ALGORITHMS, AND NETWORKS (I-SPAN 2012)\'], \'keywords\': [\'Wormhole Routing\', \'virtual Channel\', \'2D-Mesh\', \'fault-tolerance\'], \'keywordsplus\': [\'COMMUNICATION\', \'MESHES\', \'MODEL\', \'MULTICOMPUTERS\', \'NETWORK\'], ...}, {\'_version_\': 1537856506425245699, \'abstract\': [\'In this study, dynamic properties of soils in th...riod is higher where the bedrock depth increases.\'], \'address\': [\'[ 1 ] Dokuz Eylul Univ, Izmir, \'], \'addressnumbers\': [\'[\', \'1\', \']\'], \'authors\': [\'Kuruoglu, M\', \'Eskisar, T\'], \'id\': \'1687dfc0-3463-45a3-9d43-d331ea9efa10\', \'journal\': [\'2012 IV INTERNATIONAL CONFERENCE PROBLEMS OF CYBERNETICS AND INFORMATICS (PCI)\'], \'keywords\': [\'dynamic site response analysis\', \'liquefaction analysis\', \'microtremor\', \'fundamental period\', \'bedrock depth\'], \'published\': [\'2012\'], \'researchareas\': [\'Computer Science; Engineering\'], ...}, {\'_version_\': 1537856506626572291, \'abstract\': [\'Quality Function Deployment (QFD) is an effectiv...ple has been presented in the scope of the paper.\'], \'address\': [\'[ 1 ] Karadeniz Tech Univ, Dept Ind Engn, TR-61080 Trabzon, \'], \'addressnumbers\': [\'[\', \'1\', \']\', \'[\', \'1\', \']\'], \'authors\': [\'Cebi, S\', \'Demirci, E\'], \'id\': \'4f517b17-f7e7-4557-95e4-1592aadc1f35\', \'journal\': [\'UNCERTAINTY MODELING IN KNOWLEDGE ENGINEERING AND DECISION MAKING\'], \'keywordsplus\': [\'QUALITY FUNCTION DEPLOYMENT\', \'FUZZY-QFD\', \'ENVIRONMENTAL PERFORMANCE\', \'DESIGN REQUIREMENTS\', \'SUPPLIER SELECTION\', \'PROGRAMMING-MODEL\', \'SERVICE QUALITY\', \'EXPERT-SYSTEM\', \'EXTENDED QFD\', \'METHODOLOGY\'], \'published\': [\'2012\'], \'researchareas\': [\'Computer Science\\n\'], ...}, {\'DOI\': [\'10.1016/j.eswa.2011.07.123\'], \'_version_\': 1537856506662223873, \'abstract\': [\'The clustering problem has been studied by many ...ters. (C) 2011 Elsevier Ltd. All rights reserved.\'], \'address\': [\'[ 1 ] Istanbul Univ, Fac Business Adm, Istanbul, \'], \'authors\': [\'Cura, T\'], \'id\': \'73fef87f-749c-489f-b801-513f7ea2428b\', \'journal\': [\'EXPERT SYSTEMS WITH APPLICATIONS\'], \'keywords\': [\'Particle swarm optimization\', \'Clustering\', \'Heuristics\'], \'keywordsplus\': [\'COLONY APPROACH\', \'ALGORITHM\', \'SEARCH\'], \'published\': [\'JAN 2012\'], ...}, {\'_version_\': 1537856507325972480, \'abstract\': [\'As the demand for uninterrupted Internet access ...in order to balance load and maximize throughput.\'], \'address\': [\'[ 1 ] Atilim Univ, Dept Informat Syst Engn, Ankara, \'], \'addressnumbers\': [\'[\', \'1\', \']\'], \'authors\': [\'Koyuncu, M\', \'Gercek, MK\', \'Ercan, T\'], \'id\': \'3d56390c-50fe-4d28-b452-c7df881c3d69\', \'journal\': [\'RECENT TRENDS IN WIRELESS AND MOBILE NETWORKS\'], \'keywords\': [\'Wireless Communication\', \'Wireless Local Area Network (WLAN)\', \'IEEE 802.11\', \'load balancing\', \'throughput maximization\'], \'keywordsplus\': [\'WIRELESS\', \'LANS\'], \'published\': [\'2010\'], ...}, {\'DOI\': [\'10.1016/j.eswa.2008.06.012\'], \'_version_\': 1537856507474870272, \'abstract\': [\'Stability of rock slopes are usually evaluated b...dels. (c) 2008 Elsevier Ltd. All rights reserved.\'], \'address\': [\'[ 1 ] Istanbul Tech Univ, Fac Civil Engn, Hydraul Div, TR-34469 Istanbul, \'], \'authors\': [\'Erdik, T\'], \'id\': \'1456fab3-094e-4134-904f-63b6a59e9ed1\', \'journal\': [\'EXPERT SYSTEMS WITH APPLICATIONS\'], \'keywords\': [\'Rubble mound breakwaters\', \'Design\', \'Fuzzy model\', \'Stability number\'], \'keywordsplus\': [\'NEURAL-NETWORK\', \'BREAKWATERS\'], \'published\': [\'APR 2009\'], ...}, {\'_version_\': 1537856507654176771, \'abstract\': [\'Hand is a very convenient interlace for immersiv...in terms of their discriminative power and speed.\'], \'address\': [\'[ 1 ] Bilkent Univ, Ankara, \'], \'addressnumbers\': [\'[\', \'1\', \']\'], \'authors\': [\'Genc, S\', \'Atalay, V\'], \'id\': \'1fcc0bd6-c883-4bf4-a28d-4d37a1da0e4c\', \'journal\': [\'ADVANCES IN VISUAL COMPUTING, PT 1, PROCEEDINGS\'], \'keywords\': [\'Shape representation\', \'hand recognition\', \'hand interface\'], \'keywordsplus\': [\'RECOGNITION\', \'VISION\', \'MODELS\'], \'published\': [\'2009\'], ...}, {\'_version_\': 1537856507723382785, \'abstract\': [\'Due to very sensitive and crucial nature of the ...me and delay performance of the WSN applications.\'], \'address\': [\'[ 1 ] Kocaeli Univ, Elect & Comp Educ Dept, TR-41380 Kocaeli, \'], \'addressnumbers\': [\'[\', \'1\', \']\', \'[\', \'1\', \']\', \'[\', \'1\', \']\'], \'authors\': [\'Bandirmali, N\', \'Erturk, I\', \'Ceken, C\'], \'id\': \'27ab5619-8fcd-4925-8638-3d6453b15f91\', \'journal\': [\'ISWPC: 2009 4TH INTERNATIONAL SYMPOSIUM ON WIRELESS PERVASIVE COMPUTING\'], \'keywordsplus\': [\'WIRELESS SENSOR NETWORKS\'], \'published\': [\'2009\'], \'researchareas\': [\'Computer Science; Engineering; Telecommunications\'], ...}, {\'DOI\': [\'10.1111/j.1468-0394.2008.00457.x\'], \'_version_\': 1537856507826143233, \'abstract\': [\'Current standards on agent communication languag...a multi-agent development framework is discussed.\'], \'address\': [\'[ 1 ] Ege Univ, Dept Comp Engn, TR-35100 Izmir, \'], \'addressnumbers\': [\'[\', \'1\', \']\', \'[\', \'1\', \']\'], \'authors\': [\'Erdur, RC\', \'Seylan, I\'], \'id\': \'a2a56988-70b0-4a93-a237-96dd7dc758bf\', \'journal\': [\'EXPERT SYSTEMS\'], \'keywords\': [\'description logic\', \'modal logic\', \'multi-agent systems\', \'agent communication\', \'semantic web\'], \'keywordsplus\': [\'MODAL-LOGICS\', \'SYSTEMS\'], ...}, ...]'
p167
sS'URL'
p168
S'<function URL>'
p169
sS'__file__'
p170
S"'/home/damla/web2py/applications/webofsciencenew/views/default/index.html'"
p171
sS'db'
p172
S'<DAL uri="sqlite://storage.sqlite">'
p173
sS'auth'
p174
S'<gluon.tools.Auth object>'
p175
sS'P'
S"<class 'gluon.html.P'>"
p176
sS'TFOOT'
p177
S"<class 'gluon.html.TFOOT'>"
p178
sS'XHTML'
p179
S"<class 'gluon.html.XHTML'>"
p180
sS'ON'
p181
S'True'
p182
sS'OL'
p183
S"<class 'gluon.html.OL'>"
p184
sS'IS_JSON'
p185
S"<class 'gluon.validators.IS_JSON'>"
p186
sS'TEXTAREA'
p187
S"<class 'gluon.html.TEXTAREA'>"
p188
sS'MENU'
p189
S"<class 'gluon.html.MENU'>"
p190
sS'IS_IMAGE'
p191
S"<class 'gluon.validators.IS_IMAGE'>"
p192
sS'EM'
p193
S"<class 'gluon.html.EM'>"
p194
sS'CODE'
p195
S"<class 'gluon.html.CODE'>"
p196
sS'HTTP'
p197
S"<class 'gluon.http.HTTP'>"
p198
sS'HR'
p199
S"<class 'gluon.html.HR'>"
p200
sS'IS_DATETIME'
p201
S"<class 'gluon.validators.IS_DATETIME'>"
p202
sS'STYLE'
p203
S"<class 'gluon.html.STYLE'>"
p204
sS'LABEL'
p205
S"<class 'gluon.html.LABEL'>"
p206
sS'CLEANUP'
p207
S"<class 'gluon.validators.CLEANUP'>"
p208
sS'plugins'
p209
S'<gluon.tools.PluginManager object>'
p210
sS'SELECT'
p211
S"<class 'gluon.html.SELECT'>"
p212
sS'CENTER'
p213
S"<class 'gluon.html.CENTER'>"
p214
sS'Auth'
p215
S"<class 'gluon.tools.Auth'>"
p216
sS'DEVELOPMENT_MENU'
p217
g182
sS'__builtins__'
p218
S"{'ArithmeticError': <type 'exceptions.ArithmeticError'>, 'AssertionError': <type 'exceptions.AssertionError'>, 'AttributeError': <type 'exceptions.AttributeError'>, 'BaseException': <type 'exceptions.BaseException'>, 'BufferError': <type 'exceptions.BufferError'>, 'BytesWarning': <type 'exceptions.BytesWarning'>, 'DeprecationWarning': <type 'exceptions.DeprecationWarning'>, 'EOFError': <type 'exceptions.EOFError'>, 'Ellipsis': Ellipsis, 'EnvironmentError': <type 'exceptions.EnvironmentError'>, ...}"
p219
sS'HTML'
p220
S"<class 'gluon.html.HTML'>"
p221
sS'SQLFORM'
p222
S"<class 'gluon.sqlhtml.SQLFORM'>"
p223
sS'LOAD'
p224
S'<function LOAD>'
p225
sS'redirect'
p226
S'<function redirect>'
p227
sS'FIELDSET'
p228
S"<class 'gluon.html.FIELDSET'>"
p229
sS'IS_EQUAL_TO'
p230
S"<class 'gluon.validators.IS_EQUAL_TO'>"
p231
sS'embed64'
p232
S'<function embed64>'
p233
sS'IS_LIST_OF'
p234
S"<class 'gluon.validators.IS_LIST_OF'>"
p235
sS'INPUT'
p236
S"<class 'gluon.html.INPUT'>"
p237
sS'EMBED'
p238
S"<class 'gluon.html.EMBED'>"
p239
sS'_'
S'<function _>'
p240
sS'myconf'
p241
S"{'forms': {'formstyle': 'bootstrap3_inline', 'se...': {'names': 'localhost:*, 127.0.0.1:*, *:*, *'}}"
p242
sS'H2'
p243
S"<class 'gluon.html.H2'>"
p244
sS'H3'
p245
S"<class 'gluon.html.H3'>"
p246
sS'AppConfig'
p247
S'<function AppConfig>'
p248
sS'H1'
p249
S"<class 'gluon.html.H1'>"
p250
sS'H6'
p251
S"<class 'gluon.html.H6'>"
p252
sS'H4'
p253
S"<class 'gluon.html.H4'>"
p254
sS'H5'
p255
S"<class 'gluon.html.H5'>"
p256
sS'UL'
p257
S"<class 'gluon.html.UL'>"
p258
sS'length'
p259
S'141'
p260
sS'IS_UPPER'
p261
S"<class 'gluon.validators.IS_UPPER'>"
p262
sS'xmlescape'
p263
S'<function xmlescape>'
p264
sS'IS_TIME'
p265
S"<class 'gluon.validators.IS_TIME'>"
p266
sS'OPTION'
p267
S"<class 'gluon.html.OPTION'>"
p268
sS'TITLE'
p269
S"<class 'gluon.html.TITLE'>"
p270
sS'CRYPT'
p271
S"<class 'gluon.validators.CRYPT'>"
p272
sS'IS_EMPTY_OR'
p273
S"<class 'gluon.validators.IS_EMPTY_OR'>"
p274
sS'MARKMIN'
p275
S"<class 'gluon.html.MARKMIN'>"
p276
sS'article'
p277
S"{'_version_': 1537856508573777920, 'abstract': ['Although several quantum programming languages h... an adiabatic quantum programming infrastructure.'], 'address': ['[ 1 ] Bogazici Univ, Dept Comp Engn, Istanbul, '], 'authors': ['Khusnitdinova, E', 'Say, ACC'], 'id': 'f1209d7b-cecd-4478-8e3b-075050eab520', 'journal': ['Computer and Information Sciences - ISCIS 2006, Proceedings'], 'published': ['2006'], 'researchareas': ['Computer Science\\n'], 'title': ['Problems of adiabatic quantum program design'], 'webofsciencecategories': ['Computer Science, Artificial Intelligence; Compu...e Engineering; Computer Science, Theory & Methods']}"
p278
sS'STRONG'
p279
S"<class 'gluon.html.STRONG'>"
p280
sS'COL'
p281
S"<class 'gluon.html.COL'>"
p282
sS'service'
p283
S'<gluon.tools.Service object>'
p284
sS'SCRIPT'
p285
S"<class 'gluon.html.SCRIPT'>"
p286
sS'TABLE'
p287
S"<class 'gluon.html.TABLE'>"
p288
sS'IS_IPV4'
p289
S"<class 'gluon.validators.IS_IPV4'>"
p290
sS'IS_LENGTH'
p291
S"<class 'gluon.validators.IS_LENGTH'>"
p292
sS'IS_IPV6'
p293
S"<class 'gluon.validators.IS_IPV6'>"
p294
sS'XML'
p295
S"<class 'gluon.html.XML'>"
p296
sS'B'
S"<class 'gluon.html.B'>"
p297
sS'IMG'
p298
S"<class 'gluon.html.IMG'>"
p299
sS'SQLTABLE'
p300
S"<class 'gluon.sqlhtml.SQLTABLE'>"
p301
sS'IS_MATCH'
p302
S"<class 'gluon.validators.IS_MATCH'>"
p303
sS'IS_ALPHANUMERIC'
p304
S"<class 'gluon.validators.IS_ALPHANUMERIC'>"
p305
sS'SPAN'
p306
S"<class 'gluon.html.SPAN'>"
p307
sS'keyword'
p308
S"'None'"
p309
sS'IS_IPADDRESS'
p310
S"<class 'gluon.validators.IS_IPADDRESS'>"
p311
sS'IS_SLUG'
p312
S"<class 'gluon.validators.IS_SLUG'>"
p313
sS'BEAUTIFY'
p314
S"<class 'gluon.html.BEAUTIFY'>"
p315
sS'META'
p316
S"<class 'gluon.html.META'>"
p317
sS'facetListyears'
p318
S"[['2006', '2012', '2005', '2008', '2015', '2009', '2014', '2009', '2009', '2013', '2015', '2001', '2007', '2010', '2011', '2013', '2007', '2015', '2005', '2010', ...], [5, 5, 3, 3, 3, 2, 2, 2, 2, 2, 2, 1, 1, 1, 1, 1, 1, 1, 1, 1, ...]]"
p319
sS'BUTTON'
p320
S"<class 'gluon.html.BUTTON'>"
p321
sS'IS_DATE'
p322
S"<class 'gluon.validators.IS_DATE'>"
p323
sS'IS_EMAIL'
p324
S"<class 'gluon.validators.IS_EMAIL'>"
p325
sS'IS_NOT_EMPTY'
p326
S"<class 'gluon.validators.IS_NOT_EMPTY'>"
p327
sS'IS_FLOAT_IN_RANGE'
p328
S"<class 'gluon.validators.IS_FLOAT_IN_RANGE'>"
p329
sS'TBODY'
p330
S"<class 'gluon.html.TBODY'>"
p331
sS'CAT'
p332
S"<class 'gluon.html.CAT'>"
p333
sS'Field'
p334
S"<class 'pydal.objects.Field'>"
p335
sS'IS_LIST_OF_EMAILS'
p336
S"<class 'gluon.validators.IS_LIST_OF_EMAILS'>"
p337
sS'DIV'
p338
S"<class 'gluon.html.DIV'>"
p339
sS'LEGEND'
p340
S"<class 'gluon.html.LEGEND'>"
p341
sS'COLGROUP'
p342
S"<class 'gluon.html.COLGROUP'>"
p343
sS'DAL'
p344
S"<class 'pydal.base.DAL'>"
p345
sS'ASSIGNJS'
p346
S'<function ASSIGNJS>'
p347
sS'TR'
p348
S"<class 'gluon.html.TR'>"
p349
sS'LI'
p350
S"<class 'gluon.html.LI'>"
p351
sS'facetList'
p352
S"[['Cebi, S', 'Kardas, S', 'Bingol, MA', 'Demirci, E', 'Demirci, H', 'Erdik, T', 'Kiraz, MS', 'Levi, A', 'Okuyan, E', 'Orencik, B', 'Sandikkaya, MT', 'Sen, Z', 'Sert, SA', 'Yazici, A', 'Yolum, P', 'Aksel, EB', 'Alhajj, R', 'Alpaydin, E', 'Ardahan, H', 'Arslan, DB', ...], [4, 3, 2, 2, 2, 2, 2, 2, 2, 2, 2, 2, 2, 2, 2, 1, 1, 1, 1, 1, ...]]"
p353
sS'TH'
p354
S"<class 'gluon.html.TH'>"
p355
sS'TD'
p356
S"<class 'gluon.html.TD'>"
p357
sS'PluginManager'
p358
S"<class 'gluon.tools.PluginManager'>"
p359
sS'IS_URL'
p360
S"<class 'gluon.validators.IS_URL'>"
p361
sS'A'
S"<class 'gluon.html.A'>"
p362
sS'HEAD'
p363
S"<class 'gluon.html.HEAD'>"
p364
sS'IS_DATETIME_IN_RANGE'
p365
S"<class 'gluon.validators.IS_DATETIME_IN_RANGE'>"
p366
sS'FORM'
p367
S"<class 'gluon.html.FORM'>"
p368
sS'I'
S"<class 'gluon.html.I'>"
p369
sS'IS_NOT_IN_DB'
p370
S"<class 'gluon.validators.IS_NOT_IN_DB'>"
p371
sg121
S"<Storage {'body': <cStringIO.StringO object at 0...t 0x7f0ea00f7aa0>, 'view': 'default/index.html'}>"
p372
sS'THEAD'
p373
S"<class 'gluon.html.THEAD'>"
p374
sS'ANY_OF'
p375
S"<class 'gluon.validators.ANY_OF'>"
p376
sS'IS_NULL_OR'
p377
S"<class 'gluon.validators.IS_EMPTY_OR'>"
p378
sS'i'
S'0'
sS'__name__'
p379
S"'__restricted__'"
p380
sS'author'
p381
S"'Khusnitdinova, E'"
p382
sg56
S"<Storage {'_vars': <Storage {}>, 'function': 'in...ome/damla/web2py/applications/webofsciencenew/'}>"
p383
sS'IS_EXPR'
p384
S"<class 'gluon.validators.IS_EXPR'>"
p385
sS'T'
S'<gluon.languages.translator object>'
p386
sS'IS_IN_SET'
p387
S"<class 'gluon.validators.IS_IN_SET'>"
p388
sS'IS_UPLOAD_FILENAME'
p389
S"<class 'gluon.validators.IS_UPLOAD_FILENAME'>"
p390
sS'TT'
p391
S"<class 'gluon.html.TT'>"
p392
sS'IS_DECIMAL_IN_RANGE'
p393
S"<class 'gluon.validators.IS_DECIMAL_IN_RANGE'>"
p394
sssS'traceback'
p395
S'Traceback (most recent call last):\n  File "/home/damla/web2py/gluon/restricted.py", line 227, in restricted\n    exec ccode in environment\n  File "/home/damla/web2py/applications/webofsciencenew/views/default/index.html", line 45, in <module>\n    {{pass}}\nNameError: name \'authorname\' is not defined\n'
p396
s.